Certificate:
    Data:
        Version: 3 (0x2)
        Serial Number: 9 (0x9)
        Signature Algorithm: md5WithRSAEncryption
        Issuer: C=CN, ST=BeiJing, L=Beijing, O=TurboLinux, CN=koji/emailAddress=jian.li@turbolinux.com.cn
        Validity
            Not Before: Feb 26 10:51:59 2021 GMT
            Not After : Feb 24 10:51:59 2031 GMT
        Subject: C=CN, ST=BeiJing, O=TurboLinux, CN=kojiadmin/emailAddress=jian.li@turbolinux.com.cn
        Subject Public Key Info:
            Public Key Algorithm: rsaEncryption
                RSA Public-Key: (2048 bit)
                Modulus:
                    00:ad:db:3a:ff:1b:91:0d:4f:21:99:85:86:eb:e5:
                    5f:fd:23:5f:a5:c7:8f:76:94:9f:75:e6:b6:33:8c:
                    19:43:2b:0f:27:63:92:8f:dd:ff:ea:2e:0d:9a:e2:
                    0b:ff:55:55:b6:75:a8:53:92:4c:bb:22:d4:01:21:
                    bd:34:ff:da:fd:fb:b8:d9:98:cf:0d:d7:7c:41:dc:
                    fe:1a:fa:43:23:d5:a4:32:89:45:c5:df:5d:47:c4:
                    c4:27:50:2b:e1:76:10:45:94:29:3e:59:a0:93:f1:
                    70:24:11:4a:4e:2f:c7:a0:b3:fa:6b:91:7a:d4:66:
                    f0:fd:59:7b:23:30:a1:e2:89:86:73:2f:c8:fd:c9:
                    ff:07:4e:9a:8c:fb:a8:7b:1e:8a:fd:b4:ef:54:1d:
                    28:7f:c9:be:78:7b:63:8b:ae:da:80:99:9b:e1:f9:
                    37:3c:7f:14:68:93:d0:b7:4a:98:e3:9e:02:b8:e9:
                    0c:3b:83:cd:49:a5:58:22:b7:47:79:c1:e5:b4:1c:
                    7c:e9:6a:aa:06:2c:cc:62:6d:76:da:e4:1c:a2:c4:
                    c2:81:9a:9b:4c:2e:68:c0:f0:c0:9d:4b:9f:c2:01:
                    24:9a:df:9d:00:87:22:e3:45:7b:06:d3:45:3a:9e:
                    ed:6e:70:cf:35:c2:d7:34:94:a7:61:46:7a:e7:8b:
                    0a:33
                Exponent: 65537 (0x10001)
        X509v3 extensions:
            X509v3 Basic Constraints: 
                CA:FALSE
            Netscape Comment: 
                OpenSSL Generated Certificate
            X509v3 Subject Key Identifier: 
                85:CF:BA:83:6B:42:6A:B4:36:6D:37:04:FC:28:30:38:A9:D5:8D:00
            X509v3 Authority Key Identifier: 
                keyid:31:DB:99:18:EF:F7:00:5C:10:56:2B:8D:48:85:22:0E:18:B2:4B:CB
                DirName:/C=CN/ST=BeiJing/L=Beijing/O=TurboLinux/CN=koji/emailAddress=jian.li@turbolinux.com.cn
                serial:24:A1:98:82:5A:77:65:F7:8E:E7:EC:50:83:E6:4B:27:64:B8:6F:5C

    Signature Algorithm: md5WithRSAEncryption
         4c:f6:53:a6:6d:37:4a:f5:3f:e1:25:fa:1c:5f:36:6f:6d:41:
         71:52:d5:76:3e:f2:cd:a9:db:f7:9a:a7:59:65:fa:e5:f0:2e:
         91:7e:36:d4:7c:1b:79:64:68:1d:51:33:1a:98:c7:a5:31:6d:
         ef:c6:90:6f:d9:45:f4:5b:22:3a:4c:61:50:4c:d5:87:fb:ee:
         19:20:d1:8c:09:7d:42:66:c0:9d:51:59:1d:ee:e9:79:cf:27:
         46:70:20:eb:1a:ec:85:2a:21:22:ca:07:2c:bc:76:31:c6:42:
         13:57:42:2f:3c:e0:92:1e:ab:c7:bc:25:9a:0a:94:d1:19:50:
         50:0a:18:c2:40:05:74:1a:68:ea:b3:de:c3:f1:be:3a:c9:53:
         dc:c6:c5:79:3b:9d:aa:e2:fd:27:99:20:4a:da:b1:bf:35:7e:
         86:2b:f2:c5:b3:1a:a9:f9:b4:7a:6e:46:e6:c6:52:98:aa:3a:
         b6:00:c4:0c:0c:5c:9b:fb:1e:65:26:b8:9f:02:79:c6:f0:f5:
         06:5e:8f:4e:26:1e:86:8f:dc:a8:fb:c3:eb:df:f8:43:b3:2f:
         02:63:b6:57:ca:6d:46:d2:e1:bf:6c:2b:60:68:4d:27:29:5b:
         5c:67:d5:46:cb:82:6c:49:88:32:f3:05:58:d5:12:6c:03:b6:
         a2:dd:d8:1c
-----BEGIN CERTIFICATE-----
MIIEizCCA3OgAwIBAgIBCTANBgkqhkiG9w0BAQQFADB/MQswCQYDVQQGEwJDTjEQ
MA4GA1UECBMHQmVpSmluZzEQMA4GA1UEBxMHQmVpamluZzETMBEGA1UEChMKVHVy
Ym9MaW51eDENMAsGA1UEAxMEa29qaTEoMCYGCSqGSIb3DQEJARYZamlhbi5saUB0
dXJib2xpbnV4LmNvbS5jbjAeFw0yMTAyMjYxMDUxNTlaFw0zMTAyMjQxMDUxNTla
MHIxCzAJBgNVBAYTAkNOMRAwDgYDVQQIEwdCZWlKaW5nMRMwEQYDVQQKEwpUdXJi
b0xpbnV4MRIwEAYDVQQDEwlrb2ppYWRtaW4xKDAmBgkqhkiG9w0BCQEWGWppYW4u
bGlAdHVyYm9saW51eC5jb20uY24wggEiMA0GCSqGSIb3DQEBAQUAA4IBDwAwggEK
AoIBAQCt2zr/G5ENTyGZhYbr5V/9I1+lx492lJ915rYzjBlDKw8nY5KP3f/qLg2a
4gv/VVW2dahTkky7ItQBIb00/9r9+7jZmM8N13xB3P4a+kMj1aQyiUXF311HxMQn
UCvhdhBFlCk+WaCT8XAkEUpOL8egs/prkXrUZvD9WXsjMKHiiYZzL8j9yf8HTpqM
+6h7Hor9tO9UHSh/yb54e2OLrtqAmZvh+Tc8fxRok9C3SpjjngK46Qw7g81JpVgi
t0d5weW0HHzpaqoGLMxibXba5ByixMKBmptMLmjA8MCdS5/CASSa350AhyLjRXsG
00U6nu1ucM81wtc0lKdhRnrniwozAgMBAAGjggEdMIIBGTAJBgNVHRMEAjAAMCwG
CWCGSAGG+EIBDQQfFh1PcGVuU1NMIEdlbmVyYXRlZCBDZXJ0aWZpY2F0ZTAdBgNV
HQ4EFgQUhc+6g2tCarQ2bTcE/CgwOKnVjQAwgb4GA1UdIwSBtjCBs4AUMduZGO/3
AFwQViuNSIUiDhiyS8uhgYSkgYEwfzELMAkGA1UEBhMCQ04xEDAOBgNVBAgTB0Jl
aUppbmcxEDAOBgNVBAcTB0JlaWppbmcxEzARBgNVBAoTClR1cmJvTGludXgxDTAL
BgNVBAMTBGtvamkxKDAmBgkqhkiG9w0BCQEWGWppYW4ubGlAdHVyYm9saW51eC5j
b20uY26CFCShmIJad2X3jufsUIPmSydkuG9cMA0GCSqGSIb3DQEBBAUAA4IBAQBM
9lOmbTdK9T/hJfocXzZvbUFxUtV2PvLNqdv3mqdZZfrl8C6RfjbUfBt5ZGgdUTMa
mMelMW3vxpBv2UX0WyI6TGFQTNWH++4ZINGMCX1CZsCdUVkd7ul5zydGcCDrGuyF
KiEiygcsvHYxxkITV0IvPOCSHqvHvCWaCpTRGVBQChjCQAV0Gmjqs97D8b46yVPc
xsV5O52q4v0nmSBK2rG/NX6GK/LFsxqp+bR6bkbmxlKYqjq2AMQMDFyb+x5lJrif
AnnG8PUGXo9OJh6Gj9yo+8Pr3/hDsy8CY7ZXym1G0uG/bCtgaE0nKVtcZ9VGy4Js
SYgy8wVY1RJsA7ai3dgc
-----END CERTIFICATE-----
-----BEGIN RSA PRIVATE KEY-----
MIIEogIBAAKCAQEAnsTYR09B2RL/qHq6n4e1kbJzsK/0KbCOsl5ZVBzFisHRIHjG
5ZOb1L7dHnDYwrESa9C2sO8g4e8UlvJgXFGLS+RcYVL7pi09KPnORg2C2x0a0+kv
22Cze1s5iM7j+9C7EA1HR7K7/o/CzKSrOqKjRIjptHgVzYLX9uaqG45JtJPp7UZl
KcGwI8VUev40LD2YH7oiET9i+0iXWgMijYw1ejziitI0XFNhSCRZYtcGGGCsixSX
isTvow+xAmUbEYTdyiHTM3clv3YxVqlACwv6iCAVRpyi5uDtiGDnre4YPAA1NiuM
5ZWOMKl7GLcR7T2DL6nE9DuPmrlsWy8kD780zwIDAQABAoIBACRVfAFlu/YHiQZv
f8H+dqjvI9atjbz0sNNVEDBVnUeR71/1A9+KFkFrpILQ5Go5x7Nwwj5fmzDZW+bn
dPHrn2swyYtkSD7RX4u/D1usv+ORF5CjbtZPnQN/7vzGDBqWvBiCUWuxFaC+GaBn
luAGVELc6k7opGSxqubQBuHjgC6YxrkrKnJxD8mITygJlDlGv7aajSsuRSOGwx7g
gDBc8y0a/OJ+1syaEbjaLE4JF6r7QRZzGIvh7F6ShKxsxYBeqIiD/A5rEAuWphg3
icBWfhXQ2Xugpz5F4RlpfKDCMZ/sqvHqpk/eCgBhiqD7G8VPfJQ/PcuEU5bBns4z
xDqXlPECgYEA0ba06qSf6ZbpTrZqIsrukBAfzu6O32j3PYLg0Lmp7Vp0NZsSyMA5
XqHTdC10LP+EBA6nUrgfDtkMK3w8mmh7ICWi376xq4Ce1z/5cbQd4X1ehqP68DHb
/TS74cDYvMEK0DWnBa+2WvpCFJo0vBk2wHuZY9HKIf5Dtym1/jEJHRUCgYEAwc+k
+lbH9HSesvpDxWihuw6S/S5OU/PisvJHt3EAS/sVNnyjtmGbzAwmrmEpQzJHZ/hy
VqBJXDBpidftjDasZHRRibCqDpA/i9APzWLFkaVZwX4aDasz2t247MMl6F2G11qd
TvE/rQsf93gHBDKIYk1y1RaG4cxM66VuC7bXa1MCgYBMqsXTLmIDzJb4nrmIhLXY
Vvy58v6qcD5K74ju5aFY04O+gTXJzHRswy6Bv4hEVxlVPmIvXH6GOBU55I5nSKES
rI+xyo47i6cGPC4eQmHWKLYg9Nvtadzp4Zh6PL0/rDcezS6FZqp88hasX3+98F3S
2pzGIFEMQl9RG9+b0SNqzQKBgF2VQwcyMhji2uJ3H5RJwpZNIkKoQmAdSmC3xlNY
eBk4IvUNWAuvtAfh8iePeNoehAY7HBKiEOo34i4SGnzyxWk4FUsUB/lCQ7zh+U9m
GxoJqn5YwoHJIh/TogCI9lvuFTcVZRICQYnv7j6TMWggcmRtGz6zQuvyt02tsqZr
YjdLAoGAc9JegkWj1ZNLI9hupEUxjo2ky6lTZqb68V3bAJNhUxFvEgNGAi0pwtag
I7VEWnvz52aBryE9Gtgqd8rfyg8Qr2C/1MxyHIobMCehqIBUb1DnEu6SQqAKW5m9
g7juYwB2P+Ucy62ae4vF3qecT2E95HaQ4GEHJUlKDwPZyeU4UMM=
-----END RSA PRIVATE KEY-----
