Certificate:
    Data:
        Version: 3 (0x2)
        Serial Number: 8 (0x8)
        Signature Algorithm: md5WithRSAEncryption
        Issuer: C=CN, ST=BeiJing, L=Beijing, O=TurboLinux, CN=koji/emailAddress=jian.li@turbolinux.com.cn
        Validity
            Not Before: Feb 26 10:51:48 2021 GMT
            Not After : Feb 24 10:51:48 2031 GMT
        Subject: C=CN, ST=BeiJing, O=TurboLinux, CN=kojibuilder5/emailAddress=jian.li@turbolinux.com.cn
        Subject Public Key Info:
            Public Key Algorithm: rsaEncryption
                RSA Public-Key: (2048 bit)
                Modulus:
                    00:a5:d8:ea:b8:82:c9:74:a2:11:ea:9f:1d:6e:fd:
                    d8:ec:e0:9e:36:fd:43:ef:69:5b:f1:f2:0b:b1:2a:
                    52:6e:ee:96:dd:8a:e0:a4:f6:1d:c4:71:c0:59:19:
                    a5:a2:6d:c6:29:f3:72:df:a8:54:37:77:f3:0e:29:
                    d6:5b:89:9c:50:59:2a:83:cb:fa:3b:aa:ee:50:ee:
                    83:d1:7e:b4:56:8c:ed:4f:69:bf:d8:19:98:b3:1a:
                    15:0e:c5:52:a3:5c:00:4b:5e:f3:8e:13:d1:7f:30:
                    0a:dd:cc:1c:91:05:44:7b:f7:86:f8:bf:b5:2f:9d:
                    09:e4:80:65:eb:5f:5b:61:fb:23:74:e0:d6:59:3e:
                    7c:a1:83:e2:f9:99:6b:fb:3e:4f:e4:b3:f7:d9:59:
                    4e:08:07:5c:8f:cc:52:de:20:48:11:15:99:a4:8f:
                    2f:a8:f0:ed:8c:e8:c6:a0:5c:e7:c5:e1:28:46:84:
                    06:6e:cb:7a:ff:e5:88:35:a1:d5:6b:0d:23:e8:18:
                    5b:17:70:da:b4:03:8a:a3:30:63:7e:a5:b4:d7:2f:
                    83:d9:f8:7c:21:50:76:a5:0d:15:2a:f0:cb:d5:e8:
                    b5:bb:f7:70:f6:2f:1c:96:ac:d7:43:d2:3a:3c:88:
                    21:4d:f6:c2:d0:85:ea:58:fe:fd:c1:19:60:23:bf:
                    b9:57
                Exponent: 65537 (0x10001)
        X509v3 extensions:
            X509v3 Basic Constraints: 
                CA:FALSE
            Netscape Comment: 
                OpenSSL Generated Certificate
            X509v3 Subject Key Identifier: 
                0D:80:DB:D8:0F:14:77:41:72:DD:BC:CB:C3:49:17:F8:1B:0D:1D:DF
            X509v3 Authority Key Identifier: 
                keyid:31:DB:99:18:EF:F7:00:5C:10:56:2B:8D:48:85:22:0E:18:B2:4B:CB
                DirName:/C=CN/ST=BeiJing/L=Beijing/O=TurboLinux/CN=koji/emailAddress=jian.li@turbolinux.com.cn
                serial:24:A1:98:82:5A:77:65:F7:8E:E7:EC:50:83:E6:4B:27:64:B8:6F:5C

    Signature Algorithm: md5WithRSAEncryption
         8e:b3:15:c5:9a:de:23:ab:8a:4f:4a:1d:81:9e:f3:7c:26:7e:
         e5:95:98:af:78:c7:69:7d:2b:34:9d:13:84:93:46:84:74:2b:
         44:68:df:63:f1:6c:d1:38:d0:1c:e2:a2:89:24:70:1e:81:e6:
         2b:cb:cd:b5:f8:b8:82:46:6f:02:92:23:e8:05:42:72:39:a4:
         2a:c8:45:0d:b3:86:3b:c2:c7:87:ec:40:e5:a6:3f:c3:0c:c3:
         1d:2a:82:76:28:00:dc:14:dc:ac:b7:aa:db:f8:56:c8:b5:77:
         7b:36:1a:08:f0:ed:d3:05:12:c0:26:d4:a9:a2:24:97:a8:37:
         1c:e2:a0:13:f3:62:5d:44:0c:5f:91:8c:33:95:4b:81:53:55:
         ca:9a:6b:52:c2:96:20:64:07:1b:cd:3d:59:73:4d:99:af:77:
         b6:40:d1:a5:0b:b6:ef:c2:eb:2f:59:3d:a6:e4:26:84:0c:85:
         08:c3:6e:3a:79:c4:69:6e:fc:c0:ec:30:7b:8f:35:39:2d:16:
         d7:c6:36:8d:da:a5:80:8f:41:dd:a1:f1:45:4e:86:92:e5:4f:
         50:c4:d6:c0:8c:86:91:f5:d1:b7:17:71:fe:c0:a3:4c:76:41:
         96:26:31:a9:43:8d:a9:8b:fc:f8:b4:ee:af:63:d5:d2:49:67:
         ab:c8:72:50
-----BEGIN CERTIFICATE-----
MIIEjjCCA3agAwIBAgIBCDANBgkqhkiG9w0BAQQFADB/MQswCQYDVQQGEwJDTjEQ
MA4GA1UECBMHQmVpSmluZzEQMA4GA1UEBxMHQmVpamluZzETMBEGA1UEChMKVHVy
Ym9MaW51eDENMAsGA1UEAxMEa29qaTEoMCYGCSqGSIb3DQEJARYZamlhbi5saUB0
dXJib2xpbnV4LmNvbS5jbjAeFw0yMTAyMjYxMDUxNDhaFw0zMTAyMjQxMDUxNDha
MHUxCzAJBgNVBAYTAkNOMRAwDgYDVQQIEwdCZWlKaW5nMRMwEQYDVQQKEwpUdXJi
b0xpbnV4MRUwEwYDVQQDEwxrb2ppYnVpbGRlcjUxKDAmBgkqhkiG9w0BCQEWGWpp
YW4ubGlAdHVyYm9saW51eC5jb20uY24wggEiMA0GCSqGSIb3DQEBAQUAA4IBDwAw
ggEKAoIBAQCl2Oq4gsl0ohHqnx1u/djs4J42/UPvaVvx8guxKlJu7pbdiuCk9h3E
ccBZGaWibcYp83LfqFQ3d/MOKdZbiZxQWSqDy/o7qu5Q7oPRfrRWjO1Pab/YGZiz
GhUOxVKjXABLXvOOE9F/MArdzByRBUR794b4v7UvnQnkgGXrX1th+yN04NZZPnyh
g+L5mWv7Pk/ks/fZWU4IB1yPzFLeIEgRFZmkjy+o8O2M6MagXOfF4ShGhAZuy3r/
5Yg1odVrDSPoGFsXcNq0A4qjMGN+pbTXL4PZ+HwhUHalDRUq8MvV6LW793D2LxyW
rNdD0jo8iCFN9sLQhepY/v3BGWAjv7lXAgMBAAGjggEdMIIBGTAJBgNVHRMEAjAA
MCwGCWCGSAGG+EIBDQQfFh1PcGVuU1NMIEdlbmVyYXRlZCBDZXJ0aWZpY2F0ZTAd
BgNVHQ4EFgQUDYDb2A8Ud0Fy3bzLw0kX+BsNHd8wgb4GA1UdIwSBtjCBs4AUMduZ
GO/3AFwQViuNSIUiDhiyS8uhgYSkgYEwfzELMAkGA1UEBhMCQ04xEDAOBgNVBAgT
B0JlaUppbmcxEDAOBgNVBAcTB0JlaWppbmcxEzARBgNVBAoTClR1cmJvTGludXgx
DTALBgNVBAMTBGtvamkxKDAmBgkqhkiG9w0BCQEWGWppYW4ubGlAdHVyYm9saW51
eC5jb20uY26CFCShmIJad2X3jufsUIPmSydkuG9cMA0GCSqGSIb3DQEBBAUAA4IB
AQCOsxXFmt4jq4pPSh2BnvN8Jn7llZiveMdpfSs0nROEk0aEdCtEaN9j8WzRONAc
4qKJJHAegeYry821+LiCRm8CkiPoBUJyOaQqyEUNs4Y7wseH7EDlpj/DDMMdKoJ2
KADcFNyst6rb+FbItXd7NhoI8O3TBRLAJtSpoiSXqDcc4qAT82JdRAxfkYwzlUuB
U1XKmmtSwpYgZAcbzT1Zc02Zr3e2QNGlC7bvwusvWT2m5CaEDIUIw246ecRpbvzA
7DB7jzU5LRbXxjaN2qWAj0HdofFFToaS5U9QxNbAjIaR9dG3F3H+wKNMdkGWJjGp
Q42pi/z4tO6vY9XSSWeryHJQ
-----END CERTIFICATE-----
-----BEGIN RSA PRIVATE KEY-----
MIIEowIBAAKCAQEApdjquILJdKIR6p8dbv3Y7OCeNv1D72lb8fILsSpSbu6W3Yrg
pPYdxHHAWRmlom3GKfNy36hUN3fzDinWW4mcUFkqg8v6O6ruUO6D0X60VoztT2m/
2BmYsxoVDsVSo1wAS17zjhPRfzAK3cwckQVEe/eG+L+1L50J5IBl619bYfsjdODW
WT58oYPi+Zlr+z5P5LP32VlOCAdcj8xS3iBIERWZpI8vqPDtjOjGoFznxeEoRoQG
bst6/+WINaHVaw0j6BhbF3DatAOKozBjfqW01y+D2fh8IVB2pQ0VKvDL1ei1u/dw
9i8clqzXQ9I6PIghTfbC0IXqWP79wRlgI7+5VwIDAQABAoIBADqMOVCp2zSxgmGx
ilKEivAU28XN4w3BxBPFvxrsNe2zjM7pGCUkPZ38CktqIm8VEb/9kbAjXJe4YLW/
T01BZ012LOwaNlyaG0e27BIpCMEFP0Gps3A2mRGhQ43TWzkQYYo6GwEtPegIrc1f
ITaRBXw+BggKpYwJhFSGf3R4VWphDLs4qXqyMWPkjSHbxwV/3kNmf5PIVTGJXBIK
og4mrTwEtjpbNxbaLmqKWzZ/PyBSNKn7t63OWFaMy+viGEngJTlzQDtZ2+Fh11v8
oQwxctPTS8f/3VrwlCFmai5FE2xj5smJ2Mi58wl9tNIe79OhEHGBQKznHzBMzR7v
+BbShgECgYEA03IVUJkhnnijGRT0q7v6/jq5QwbauUby5XpsfEesKu4p7+hVcpsp
pa6jFhFpIrlOOlGGJNOn0FClmTv7E/tctHGpzoerf/gLO+jILBjoaYFP1URe3RNn
r9XwiAFD5Zhr4KBKNY1Hdjh1wDhtPplIbB23xK0pkBrx+FqeDOAkqQ8CgYEAyMsl
DYDHwTwcFfMP8GNNi7Jsr+2rzdQ3XllImcQIhkS2tAOOhlNXVUVjuQwA/EpYoM9H
KFER5Q27eur6oF/W3PG8KZyVS+phMhJaFgQpp1aDoB6AEXrP0wC+POlrBY9gSzjh
nDjlkoBgLpe+5dVXYtYdJ2ismE0kxePbu/8mmzkCgYEAppfE6WqtDUF5J0LWfxQt
be5wlrmozL90ko8BOG3z3SMmUYnZAOH1Tz+n6LQxBJXBZ7thmFRWbI+N2YxjhtvN
r7G6GynTWpDgsQP36p55Rt8GOj6TC1XFpMlHqLBugU+09xbzQPwd6KwVQixzDhYQ
9HX5mvDfxVUlfgpPak+TMssCgYASoyBuT2y7F9w3gVcSZfU1qTsDXVkcAr2c6Uae
1x4/cDNRJB9fgm7RwF4QN/gDctclHfgp2tSBYTPspdDbf+nOmjVv21PUNw4Mer2X
240ONi6DdzFF7hNKL4B44OWJH5S9hqsSOAm+/mFvEbCrXpD84IjWNpYGkOp/37Vu
jrFDqQKBgBrfX8GZ8s1NBf+jnTQcsMgo8T+hYC54o6gv6FUcwOHCCD1+1p6BYtGR
IL+le+Jeb7+WXpEJeHC118SSrJzg5ZCYcr2MpQC8diZpj4WBzji7bHYjD6thkGo4
v2NkHBs8Mx2lEj6h5PpAVbKiJML2zcjnifzlU1CTx0cgSLz3nUuo
-----END RSA PRIVATE KEY-----
