Certificate:
    Data:
        Version: 3 (0x2)
        Serial Number: 3 (0x3)
        Signature Algorithm: md5WithRSAEncryption
        Issuer: C=CN, ST=BeiJing, L=Beijing, O=TurboLinux, CN=koji/emailAddress=jian.li@turbolinux.com.cn
        Validity
            Not Before: Feb 26 10:50:44 2021 GMT
            Not After : Feb 24 10:50:44 2031 GMT
        Subject: C=CN, ST=BeiJing, O=TurboLinux, CN=kojihub/emailAddress=jian.li@turbolinux.com.cn
        Subject Public Key Info:
            Public Key Algorithm: rsaEncryption
                RSA Public-Key: (2048 bit)
                Modulus:
                    00:ab:fb:e5:b4:cb:41:96:8e:82:05:ab:20:77:3c:
                    19:66:b5:04:3c:1f:8a:47:9b:98:8a:15:e8:c3:11:
                    b7:72:7d:03:84:eb:fc:4b:75:c7:96:cc:bc:19:a1:
                    32:84:a1:2f:4a:a6:1a:42:59:41:19:3b:1d:7c:65:
                    62:50:af:cb:e9:84:0a:f1:0d:5e:7e:be:bb:7f:80:
                    3f:29:2e:fc:c7:80:65:c1:1a:2d:e0:45:9f:29:44:
                    63:9a:61:86:69:5a:14:f1:30:5a:00:00:21:e2:20:
                    2f:ac:a6:e7:ec:80:3d:f9:c4:e8:dd:3b:9e:23:24:
                    65:8c:60:ba:3a:35:1a:99:da:5c:6d:dc:78:6b:9d:
                    62:d0:c5:f9:9b:a5:f8:99:ac:95:73:60:3c:32:b1:
                    fa:d6:e0:20:4e:06:48:6c:92:d1:13:a0:72:9b:c1:
                    10:2d:30:c2:d1:28:9c:23:3d:fd:e4:48:aa:94:91:
                    f4:b0:b8:4b:77:58:80:fe:12:c3:e8:4a:f6:50:70:
                    5a:a3:21:4a:63:aa:76:fb:ee:1a:6d:cc:31:0d:b2:
                    4c:f5:50:9a:c0:d3:d9:72:d1:b0:e5:cc:99:6f:aa:
                    06:2b:80:3e:43:35:fd:40:f3:d2:3a:5f:44:ff:b9:
                    aa:4b:5f:72:c4:9d:ab:91:61:fe:c5:5d:c3:af:c5:
                    86:bb
                Exponent: 65537 (0x10001)
        X509v3 extensions:
            X509v3 Basic Constraints: 
                CA:FALSE
            Netscape Comment: 
                OpenSSL Generated Certificate
            X509v3 Subject Key Identifier: 
                D5:19:48:DE:D8:7E:FE:F9:61:46:A7:06:5B:66:F4:1E:28:D7:4E:8D
            X509v3 Authority Key Identifier: 
                keyid:31:DB:99:18:EF:F7:00:5C:10:56:2B:8D:48:85:22:0E:18:B2:4B:CB
                DirName:/C=CN/ST=BeiJing/L=Beijing/O=TurboLinux/CN=koji/emailAddress=jian.li@turbolinux.com.cn
                serial:24:A1:98:82:5A:77:65:F7:8E:E7:EC:50:83:E6:4B:27:64:B8:6F:5C

    Signature Algorithm: md5WithRSAEncryption
         ab:55:7c:54:c9:8f:59:29:d8:c6:a8:f5:0c:b4:cd:47:da:44:
         68:01:7c:99:7e:4c:37:c1:dd:ee:22:64:d2:9c:1d:b6:ce:27:
         fc:f5:91:36:e6:86:a8:19:9b:fd:81:7e:93:6f:f2:6e:db:f8:
         10:27:75:6a:44:53:9f:bb:e8:cf:2c:20:db:2f:f2:d7:93:12:
         90:60:e2:e6:05:64:50:62:32:81:4f:49:95:9d:37:e6:d1:68:
         e9:e6:b2:00:21:db:f9:f5:a0:5b:b8:3c:53:bd:59:ef:da:06:
         21:e7:82:21:a9:93:e6:83:6e:46:cd:4c:39:e7:0c:28:34:50:
         19:5c:61:0d:a2:53:33:6e:d8:ad:90:cb:88:88:55:00:0a:68:
         02:32:f2:02:34:38:82:27:40:04:0d:0a:ce:22:46:03:f5:72:
         ef:5d:a9:f4:d5:8f:00:5a:38:e8:d8:ba:3b:37:0d:c3:20:0a:
         eb:fe:5f:02:93:81:c5:57:3f:d9:d1:78:2b:4e:a6:00:1a:67:
         71:27:0c:9d:39:2c:00:21:37:6d:f3:02:56:d4:bf:49:94:f6:
         cd:c6:ba:e8:c9:9b:95:35:2f:cb:2d:e5:3e:9e:07:37:09:87:
         cc:f8:2f:75:28:2b:93:d8:2a:2d:65:70:15:1d:88:1a:ba:a8:
         91:b7:0a:8e
-----BEGIN CERTIFICATE-----
MIIEiTCCA3GgAwIBAgIBAzANBgkqhkiG9w0BAQQFADB/MQswCQYDVQQGEwJDTjEQ
MA4GA1UECBMHQmVpSmluZzEQMA4GA1UEBxMHQmVpamluZzETMBEGA1UEChMKVHVy
Ym9MaW51eDENMAsGA1UEAxMEa29qaTEoMCYGCSqGSIb3DQEJARYZamlhbi5saUB0
dXJib2xpbnV4LmNvbS5jbjAeFw0yMTAyMjYxMDUwNDRaFw0zMTAyMjQxMDUwNDRa
MHAxCzAJBgNVBAYTAkNOMRAwDgYDVQQIEwdCZWlKaW5nMRMwEQYDVQQKEwpUdXJi
b0xpbnV4MRAwDgYDVQQDEwdrb2ppaHViMSgwJgYJKoZIhvcNAQkBFhlqaWFuLmxp
QHR1cmJvbGludXguY29tLmNuMIIBIjANBgkqhkiG9w0BAQEFAAOCAQ8AMIIBCgKC
AQEAq/vltMtBlo6CBasgdzwZZrUEPB+KR5uYihXowxG3cn0DhOv8S3XHlsy8GaEy
hKEvSqYaQllBGTsdfGViUK/L6YQK8Q1efr67f4A/KS78x4BlwRot4EWfKURjmmGG
aVoU8TBaAAAh4iAvrKbn7IA9+cTo3TueIyRljGC6OjUamdpcbdx4a51i0MX5m6X4
mayVc2A8MrH61uAgTgZIbJLRE6Bym8EQLTDC0SicIz395EiqlJH0sLhLd1iA/hLD
6Er2UHBaoyFKY6p2++4abcwxDbJM9VCawNPZctGw5cyZb6oGK4A+QzX9QPPSOl9E
/7mqS19yxJ2rkWH+xV3Dr8WGuwIDAQABo4IBHTCCARkwCQYDVR0TBAIwADAsBglg
hkgBhvhCAQ0EHxYdT3BlblNTTCBHZW5lcmF0ZWQgQ2VydGlmaWNhdGUwHQYDVR0O
BBYEFNUZSN7Yfv75YUanBltm9B4o106NMIG+BgNVHSMEgbYwgbOAFDHbmRjv9wBc
EFYrjUiFIg4YskvLoYGEpIGBMH8xCzAJBgNVBAYTAkNOMRAwDgYDVQQIEwdCZWlK
aW5nMRAwDgYDVQQHEwdCZWlqaW5nMRMwEQYDVQQKEwpUdXJib0xpbnV4MQ0wCwYD
VQQDEwRrb2ppMSgwJgYJKoZIhvcNAQkBFhlqaWFuLmxpQHR1cmJvbGludXguY29t
LmNughQkoZiCWndl947n7FCD5ksnZLhvXDANBgkqhkiG9w0BAQQFAAOCAQEAq1V8
VMmPWSnYxqj1DLTNR9pEaAF8mX5MN8Hd7iJk0pwdts4n/PWRNuaGqBmb/YF+k2/y
btv4ECd1akRTn7vozywg2y/y15MSkGDi5gVkUGIygU9JlZ035tFo6eayACHb+fWg
W7g8U71Z79oGIeeCIamT5oNuRs1MOecMKDRQGVxhDaJTM27YrZDLiIhVAApoAjLy
AjQ4gidABA0KziJGA/Vy712p9NWPAFo46Ni6OzcNwyAK6/5fApOBxVc/2dF4K06m
ABpncScMnTksACE3bfMCVtS/SZT2zca66MmblTUvyy3lPp4HNwmHzPgvdSgrk9gq
LWVwFR2IGrqokbcKjg==
-----END CERTIFICATE-----
-----BEGIN RSA PRIVATE KEY-----
MIIEpAIBAAKCAQEAq/vltMtBlo6CBasgdzwZZrUEPB+KR5uYihXowxG3cn0DhOv8
S3XHlsy8GaEyhKEvSqYaQllBGTsdfGViUK/L6YQK8Q1efr67f4A/KS78x4BlwRot
4EWfKURjmmGGaVoU8TBaAAAh4iAvrKbn7IA9+cTo3TueIyRljGC6OjUamdpcbdx4
a51i0MX5m6X4mayVc2A8MrH61uAgTgZIbJLRE6Bym8EQLTDC0SicIz395EiqlJH0
sLhLd1iA/hLD6Er2UHBaoyFKY6p2++4abcwxDbJM9VCawNPZctGw5cyZb6oGK4A+
QzX9QPPSOl9E/7mqS19yxJ2rkWH+xV3Dr8WGuwIDAQABAoIBAFfN0/mYp9SozwL7
2ihlu4YvNolHhP6IFrmw89PbkK/X2VscbANOj2aTAhmHrdX+wLk40kE7djvebXBc
BnSxO8btjfSBYdQNpoYywIxTG+TyzYBn0DIm+VpFOyDPV6MjxXtZtyk26BWdXxmj
YNbipkGFYWnJjTPd2iZwH8Ol5v3SoodBDim49L29U7BL7F/UA5cIsBOy6G5Fmmcn
5e8E0Al0tRiqEqcWNMJwbjQ5dvC+Y7pOJgSDpGTm/qZa/sdU+2pv7dKXkfRCppeL
3ALrbE7Ug9+u2Y1imT8A+Z56A0unO46bUlO7hpo1VdB/hTVbgpxU/5ET9kmNFpwV
BqTUeMECgYEA1EvR+SaNwymcLu9mzn+AAHR5RQC+Yf7Iwk8vbNspyiusKrrbR1As
GKrZF+qWZoIa6G3dxJ8WQSjpe7X+3pGoEa0c6cHP9iqzCPh2eOk+/Q813AzdyEIn
pyRrBbDzVqDgawsoAB7iq/KbGEJbwHzO7EKNF3JlbdRKVk+qRofjxqECgYEAz2OX
dXZyxXuNF77tGcbN33Dq57TLSDj2WObR7AivoaQXJogsauvW71OSycXf4yTGlDdK
4ehCFIYvRk5Yw0vCGLF4ZN8afyOfcU1SCVpxpkj8m5mVINNW0+bVVI+xk3/YtS4E
q3AwEuXJUCGzy3oPH7HsQbRbZTrf4UDD/KPzu9sCgYEAhfjrIz5PTBAgPgZabIpN
rvvR49faTWFKNEVgemO8dZcl6TlOVCymB1MZ+VvTWhFVBcT/pKt4kdpNrgJmOvLU
i4MhserbYFAF9+1EZn1bgLtuk9WSyGPnPjVfTJIknlCcDzFVJu5WwYgylBacbFbX
BoXhICDTHYJQ/zL7E9OBzMECgYEAxeyUVeQvcM2TQEBU5C7ZuA96AJyJDWpfoUTY
v10i0S9bcMixK3Hc9RdblfmkzJECe92xN5yDxDaz03NePzSEDzEAZ7SNAx2qQ2W5
j3ej00EA5DdVHbjUuvMoUcW5gb2XwoIirsMo/kATOsiPYPgiiusxQRuxxhDELaOz
599I89UCgYBKsxtt1UOAhlaVf/nzSkfXbtLnYoEGG5wLMcVqzDYuT9lNVwuHTcqy
kIZqbrfXI9ol3d49nAGXkfY2nzgGsgIp06L4js6Jr+tOiQMovtmLOg+wuK35+OgM
K8Age1QTPtFC4iXtr5Puj54Hb1YfLG++OQMM9qPJP/uR1gXLCk06sg==
-----END RSA PRIVATE KEY-----
