Certificate:
    Data:
        Version: 3 (0x2)
        Serial Number: 5 (0x5)
        Signature Algorithm: md5WithRSAEncryption
        Issuer: C=CN, ST=BeiJing, L=Beijing, O=TurboLinux, CN=koji/emailAddress=jian.li@turbolinux.com.cn
        Validity
            Not Before: Feb 26 10:51:17 2021 GMT
            Not After : Feb 24 10:51:17 2031 GMT
        Subject: C=CN, ST=BeiJing, O=TurboLinux, CN=kojibuilder2/emailAddress=jian.li@turbolinux.com.cn
        Subject Public Key Info:
            Public Key Algorithm: rsaEncryption
                RSA Public-Key: (2048 bit)
                Modulus:
                    00:cd:46:09:ee:9e:bf:0a:1f:32:8f:21:77:b9:d1:
                    72:30:67:48:84:05:26:ce:a2:c7:7f:34:f0:06:a9:
                    f4:bf:f5:85:ea:bf:8b:9e:39:a2:2a:c9:33:89:cf:
                    89:11:bf:8a:1f:3d:4b:c9:18:9e:85:98:54:6e:7d:
                    05:1a:6b:d4:3e:31:6a:9e:5c:e5:12:9d:95:96:28:
                    b2:88:74:4f:47:80:37:12:59:ce:32:38:08:6c:63:
                    fb:56:2d:d0:f9:be:aa:3e:43:64:04:02:95:7a:d7:
                    fa:96:64:53:44:c9:83:de:26:cb:2d:e9:b2:d5:0a:
                    f4:8a:a4:d8:2d:ab:b6:65:b8:b3:bd:4d:ad:e1:2e:
                    29:21:5c:dc:2b:6f:a1:fc:95:7e:26:dd:26:b1:39:
                    5b:43:35:00:13:4e:c2:ff:d5:f5:b6:9f:1d:a4:67:
                    02:eb:0d:47:7f:82:56:65:29:c9:97:ec:94:b3:bd:
                    fa:68:a0:04:ad:f0:40:94:de:20:4d:d5:a9:a7:bc:
                    62:8f:83:b0:d8:32:00:52:9f:eb:da:f2:b1:21:01:
                    74:f1:c4:54:ba:e3:ae:9f:00:ac:03:c2:05:4b:a2:
                    d2:65:e6:0e:60:7c:8d:d9:e8:57:48:2a:0e:15:7e:
                    25:8e:1b:ae:f8:45:26:55:96:f5:7d:0e:4f:1f:bb:
                    76:7d
                Exponent: 65537 (0x10001)
        X509v3 extensions:
            X509v3 Basic Constraints: 
                CA:FALSE
            Netscape Comment: 
                OpenSSL Generated Certificate
            X509v3 Subject Key Identifier: 
                80:E5:05:F4:BB:8F:7B:B2:CD:2E:60:E9:89:D8:73:16:94:B3:01:03
            X509v3 Authority Key Identifier: 
                keyid:31:DB:99:18:EF:F7:00:5C:10:56:2B:8D:48:85:22:0E:18:B2:4B:CB
                DirName:/C=CN/ST=BeiJing/L=Beijing/O=TurboLinux/CN=koji/emailAddress=jian.li@turbolinux.com.cn
                serial:24:A1:98:82:5A:77:65:F7:8E:E7:EC:50:83:E6:4B:27:64:B8:6F:5C

    Signature Algorithm: md5WithRSAEncryption
         7c:06:43:d4:d4:05:3f:d2:25:c9:7c:75:6b:d7:33:66:94:aa:
         f8:00:a2:7b:0b:88:af:03:55:17:d2:8c:e9:14:48:5f:db:a7:
         d7:42:f2:65:78:51:07:23:03:ba:81:7f:0a:91:06:79:16:a2:
         23:10:d2:f8:1d:38:f7:fb:7f:6c:f0:40:d9:47:6c:9e:d7:1e:
         02:b2:61:00:38:92:18:ee:59:f4:f1:cc:22:8a:ff:89:48:0b:
         f3:68:aa:3e:03:31:e6:9b:19:7a:24:54:63:08:b1:ad:d7:b9:
         67:de:6a:ab:eb:1a:23:e3:cc:e1:36:75:f3:87:e4:95:cf:e7:
         1e:9c:26:eb:56:3e:91:76:02:38:f4:9a:54:b9:a6:5b:19:5c:
         da:8e:6d:76:12:93:04:98:f1:da:5f:83:7c:7f:71:0f:c9:2d:
         98:a4:8a:90:b2:7d:2a:04:33:2a:1d:1c:bc:bd:1f:7f:c7:40:
         db:5a:9c:bb:c0:ba:ff:73:cf:d8:18:52:83:0f:32:d0:d6:93:
         b6:43:4b:a3:bb:5d:dd:df:14:f4:3a:c9:63:6a:0f:17:51:9a:
         60:ad:85:1e:a8:f5:f3:35:a7:26:b0:51:1b:a2:37:7d:cc:e5:
         b3:c7:21:c9:6b:5e:ce:a8:68:fa:97:f4:95:2f:e0:ba:f8:c9:
         e8:15:b7:cf
-----BEGIN CERTIFICATE-----
MIIEjjCCA3agAwIBAgIBBTANBgkqhkiG9w0BAQQFADB/MQswCQYDVQQGEwJDTjEQ
MA4GA1UECBMHQmVpSmluZzEQMA4GA1UEBxMHQmVpamluZzETMBEGA1UEChMKVHVy
Ym9MaW51eDENMAsGA1UEAxMEa29qaTEoMCYGCSqGSIb3DQEJARYZamlhbi5saUB0
dXJib2xpbnV4LmNvbS5jbjAeFw0yMTAyMjYxMDUxMTdaFw0zMTAyMjQxMDUxMTda
MHUxCzAJBgNVBAYTAkNOMRAwDgYDVQQIEwdCZWlKaW5nMRMwEQYDVQQKEwpUdXJi
b0xpbnV4MRUwEwYDVQQDEwxrb2ppYnVpbGRlcjIxKDAmBgkqhkiG9w0BCQEWGWpp
YW4ubGlAdHVyYm9saW51eC5jb20uY24wggEiMA0GCSqGSIb3DQEBAQUAA4IBDwAw
ggEKAoIBAQDNRgnunr8KHzKPIXe50XIwZ0iEBSbOosd/NPAGqfS/9YXqv4ueOaIq
yTOJz4kRv4ofPUvJGJ6FmFRufQUaa9Q+MWqeXOUSnZWWKLKIdE9HgDcSWc4yOAhs
Y/tWLdD5vqo+Q2QEApV61/qWZFNEyYPeJsst6bLVCvSKpNgtq7ZluLO9Ta3hLikh
XNwrb6H8lX4m3SaxOVtDNQATTsL/1fW2nx2kZwLrDUd/glZlKcmX7JSzvfpooASt
8ECU3iBN1amnvGKPg7DYMgBSn+va8rEhAXTxxFS6466fAKwDwgVLotJl5g5gfI3Z
6FdIKg4VfiWOG674RSZVlvV9Dk8fu3Z9AgMBAAGjggEdMIIBGTAJBgNVHRMEAjAA
MCwGCWCGSAGG+EIBDQQfFh1PcGVuU1NMIEdlbmVyYXRlZCBDZXJ0aWZpY2F0ZTAd
BgNVHQ4EFgQUgOUF9LuPe7LNLmDpidhzFpSzAQMwgb4GA1UdIwSBtjCBs4AUMduZ
GO/3AFwQViuNSIUiDhiyS8uhgYSkgYEwfzELMAkGA1UEBhMCQ04xEDAOBgNVBAgT
B0JlaUppbmcxEDAOBgNVBAcTB0JlaWppbmcxEzARBgNVBAoTClR1cmJvTGludXgx
DTALBgNVBAMTBGtvamkxKDAmBgkqhkiG9w0BCQEWGWppYW4ubGlAdHVyYm9saW51
eC5jb20uY26CFCShmIJad2X3jufsUIPmSydkuG9cMA0GCSqGSIb3DQEBBAUAA4IB
AQB8BkPU1AU/0iXJfHVr1zNmlKr4AKJ7C4ivA1UX0ozpFEhf26fXQvJleFEHIwO6
gX8KkQZ5FqIjENL4HTj3+39s8EDZR2ye1x4CsmEAOJIY7ln08cwiiv+JSAvzaKo+
AzHmmxl6JFRjCLGt17ln3mqr6xoj48zhNnXzh+SVz+cenCbrVj6RdgI49JpUuaZb
GVzajm12EpMEmPHaX4N8f3EPyS2YpIqQsn0qBDMqHRy8vR9/x0DbWpy7wLr/c8/Y
GFKDDzLQ1pO2Q0uju13d3xT0Osljag8XUZpgrYUeqPXzNacmsFEbojd9zOWzxyHJ
a17OqGj6l/SVL+C6+MnoFbfP
-----END CERTIFICATE-----
-----BEGIN RSA PRIVATE KEY-----
MIIEowIBAAKCAQEAzUYJ7p6/Ch8yjyF3udFyMGdIhAUmzqLHfzTwBqn0v/WF6r+L
njmiKskzic+JEb+KHz1LyRiehZhUbn0FGmvUPjFqnlzlEp2VliiyiHRPR4A3ElnO
MjgIbGP7Vi3Q+b6qPkNkBAKVetf6lmRTRMmD3ibLLemy1Qr0iqTYLau2ZbizvU2t
4S4pIVzcK2+h/JV+Jt0msTlbQzUAE07C/9X1tp8dpGcC6w1Hf4JWZSnJl+yUs736
aKAErfBAlN4gTdWpp7xij4Ow2DIAUp/r2vKxIQF08cRUuuOunwCsA8IFS6LSZeYO
YHyN2ehXSCoOFX4ljhuu+EUmVZb1fQ5PH7t2fQIDAQABAoIBAHYTra7m/bkSzQBs
HfRzOB4Dq0DVvcbq95qClvceWDz7PDcWS3eOa2v1JIJHMO9WoFrr5WYdlUH/p8GO
hJr4H7ROtKe3g8U7hEpFyryXOutEI2mY4vUcKiw/LtoZrLWcKU17clKkMdvh1LEh
sIxG5mWpJwKYBVhq3tPJkthih57moi5Gu5st89883eufzNYVhicu8mX7jh6y36bl
6LKn58LuFuXFgUmfhhUAcCLZxg/KkjHplfxOXKAeJJVgA3aA3LMbKg2CdLhdMn+j
dDASWNKD6wO98uDg7M9NxWi0+m8uQN2NZZcW39W7K27XfuW29gB3UKfwem3qoDVQ
kcNB8QECgYEA6Al3OB8cRgrEQ7R29uTy1Ukw06gWvAnuCIX2Byur2KC1Qc3KG0ol
OMHwG3qFUCVMPsrK5C31N3iTF9C0oQet3xbYKvrmLJ5g4k4iztygxCJB3sjj/pcT
pA3dUZo0ZYnKhHSx3Joukr3VRGzCgiP5NYNmFD67MBLvwQtdKtTimR0CgYEA4nkC
cCZDtf078oxdQ6fNRvOBQocXbhVttoZeX3FXLLLkEvsMtxELXy5PCLzAM66SQGS0
8CIp4OYHRyNWiq3ZUnNI0mgM8EaSEMUQGEG1WcqoZ+qjhwA+ZOIYHcfcgw7jiUEk
vo700yl5BeLzFgUCh2LABweZLzgQ3nkMRGMNNOECgYBw9+LONP9L7oP9PohIzdCY
HKkj8wsWg3MbPTU56n4g2qVEo09JmAClMG6Ywj7TdUU4sPy0uNdRKWfbyWWXnKh/
G50k18BmarlalJYHxoyS0Obm80FlOuJ6FbHxv7TQ1pP9ht7tOzd/g+KoDJdqSt9S
uWViZ+Q0lJOblc/HQZwM1QKBgA9l+ux1LZVqKnFLaev3tNVmKRvE46rweg03BaOn
qS243BkOSMcJuaQ3GdiWPNtGu1r1fff12rMX8Na9aFz1hRk+DW2A9aBArB3HyFhd
317DkL/ADG5ZbeSeGtWriSrAEGh8rWrnfW3+G+RykeSlYo6iADx6H8g+H6eAw3zC
31sBAoGBANLZ3Civa3qPXJTTLQ2azEJxgllMPQ0+vwPpe+eSlFHBhTeKNhq4uAfG
N/ihRpryJcm0vHPBGw2DupSTb6PK245QmgMfKbXKB5NHLtg3UGZqXVLsJILc+rcm
KZgRRvGeMiV8LfaonZZdeg90bgdhgbXhjQkVvY4Awhyj58cGCAx8
-----END RSA PRIVATE KEY-----
