Certificate:
    Data:
        Version: 3 (0x2)
        Serial Number: 6 (0x6)
        Signature Algorithm: md5WithRSAEncryption
        Issuer: C=CN, ST=Beijing, L=Beijing, O=Linux, CN=koji/emailAddress=koji@163.com
        Validity
            Not Before: Aug  8 03:27:57 2022 GMT
            Not After : Aug  5 03:27:57 2032 GMT
        Subject: C=CN, ST=Beijing, O=Linux, CN=kojibuilder3/emailAddress=koji@163.com
        Subject Public Key Info:
            Public Key Algorithm: rsaEncryption
                RSA Public-Key: (2048 bit)
                Modulus:
                    00:cd:f4:85:c6:8c:d2:72:35:ba:a6:6c:0c:7b:91:
                    52:c8:27:90:f1:94:91:ef:3b:c5:b0:d7:24:de:53:
                    61:2c:c9:f9:d8:3d:c9:a9:42:d8:43:f0:ab:b4:91:
                    b9:36:15:8d:21:a3:28:c7:ab:c6:8e:45:7d:d1:51:
                    3f:7f:3d:4b:09:f5:0c:3d:a4:33:3e:26:9b:64:7d:
                    d8:7b:60:ec:a0:29:5d:91:11:8d:91:9d:b1:dc:93:
                    3f:1d:76:de:0d:a2:69:8e:ef:c6:60:6b:40:cb:26:
                    fe:3a:6d:1a:96:62:76:18:58:c9:b2:ac:f6:89:1b:
                    7d:b0:c4:6b:86:6c:96:7e:bf:6b:13:fb:88:70:8d:
                    fd:80:bb:e7:53:23:59:21:c3:b5:88:bc:c3:83:fb:
                    4c:91:fa:d1:db:eb:68:bd:07:78:19:1f:25:ec:1a:
                    c7:e2:fe:e4:1a:86:8f:f2:ce:00:8e:0a:11:30:fc:
                    74:66:21:2d:f5:6f:7b:e3:ac:96:85:e0:45:b7:07:
                    43:60:bb:bc:08:62:00:85:49:18:12:ef:8d:10:6e:
                    d4:b2:6e:ae:e8:b6:70:c4:53:15:6b:ec:f9:66:81:
                    30:b9:83:28:7c:d2:38:6a:19:e7:8b:bd:05:0f:a2:
                    83:0e:0a:60:28:14:d8:9e:3d:56:36:08:81:37:57:
                    2d:59
                Exponent: 65537 (0x10001)
        X509v3 extensions:
            X509v3 Basic Constraints: 
                CA:FALSE
            Netscape Comment: 
                OpenSSL Generated Certificate
            X509v3 Subject Key Identifier: 
                02:8E:41:95:B3:5D:B0:06:9B:0E:A0:44:76:F0:09:62:46:10:1B:66
            X509v3 Authority Key Identifier: 
                keyid:BE:5B:5F:65:A1:79:00:E7:80:16:EE:A3:FD:F0:E8:60:BC:EE:64:F9
                DirName:/C=CN/ST=Beijing/L=Beijing/O=Linux/CN=koji/emailAddress=koji@163.com
                serial:3C:27:7B:70:E8:7F:63:04:D2:A7:D1:DC:52:77:3B:0C:D6:13:1E:93

    Signature Algorithm: md5WithRSAEncryption
         05:d7:0a:87:6c:21:c9:66:c8:71:58:8a:af:c9:1b:e2:9e:59:
         ff:19:a5:bb:af:76:d2:00:78:56:0f:0e:fe:8e:1d:4b:40:7a:
         33:e3:d8:83:4b:70:34:89:54:c6:34:e1:c1:65:be:94:7c:de:
         57:b5:5e:a9:3d:b3:73:77:3d:95:08:94:be:bc:ba:d2:9a:a1:
         5f:29:1b:cd:37:d4:c8:c5:fc:d4:d9:f1:78:31:b2:10:a3:ea:
         93:60:e5:84:2f:57:af:a8:9f:4e:55:34:c0:ab:ff:1e:6d:e3:
         af:24:af:a7:0a:d5:ea:09:a2:c3:a4:9c:eb:00:f0:6a:12:ef:
         06:69:57:1a:ec:8a:2a:7c:e0:4b:ae:71:20:98:a6:16:5f:fd:
         52:6c:16:ac:38:cf:aa:09:ac:a3:64:19:c6:7b:ef:7e:ae:4a:
         ff:3e:a4:4c:f0:a6:ca:f7:86:c8:fd:06:a5:06:16:5a:9b:b5:
         7b:8a:01:14:c4:0c:eb:de:c2:c9:f4:d2:50:aa:83:7b:32:1a:
         dd:06:70:f1:d1:fc:dd:68:76:48:18:93:5f:fa:da:2f:8f:1f:
         1e:94:df:7c:a6:79:5a:94:b8:95:80:be:f9:43:94:43:40:23:
         50:31:de:77:7c:be:86:1c:fb:69:c0:8a:f6:cd:0c:04:e4:93:
         0a:8b:bb:36
-----BEGIN CERTIFICATE-----
MIIEVjCCAz6gAwIBAgIBBjANBgkqhkiG9w0BAQQFADBtMQswCQYDVQQGEwJDTjEQ
MA4GA1UECBMHQmVpamluZzEQMA4GA1UEBxMHQmVpamluZzEOMAwGA1UEChMFTGlu
dXgxDTALBgNVBAMTBGtvamkxGzAZBgkqhkiG9w0BCQEWDGtvamlAMTYzLmNvbTAe
Fw0yMjA4MDgwMzI3NTdaFw0zMjA4MDUwMzI3NTdaMGMxCzAJBgNVBAYTAkNOMRAw
DgYDVQQIEwdCZWlqaW5nMQ4wDAYDVQQKEwVMaW51eDEVMBMGA1UEAxMMa29qaWJ1
aWxkZXIzMRswGQYJKoZIhvcNAQkBFgxrb2ppQDE2My5jb20wggEiMA0GCSqGSIb3
DQEBAQUAA4IBDwAwggEKAoIBAQDN9IXGjNJyNbqmbAx7kVLIJ5DxlJHvO8Ww1yTe
U2EsyfnYPcmpQthD8Ku0kbk2FY0hoyjHq8aORX3RUT9/PUsJ9Qw9pDM+Jptkfdh7
YOygKV2REY2RnbHckz8ddt4NommO78Zga0DLJv46bRqWYnYYWMmyrPaJG32wxGuG
bJZ+v2sT+4hwjf2Au+dTI1khw7WIvMOD+0yR+tHb62i9B3gZHyXsGsfi/uQaho/y
zgCOChEw/HRmIS31b3vjrJaF4EW3B0Ngu7wIYgCFSRgS740QbtSybq7otnDEUxVr
7PlmgTC5gyh80jhqGeeLvQUPooMOCmAoFNiePVY2CIE3Vy1ZAgMBAAGjggEJMIIB
BTAJBgNVHRMEAjAAMCwGCWCGSAGG+EIBDQQfFh1PcGVuU1NMIEdlbmVyYXRlZCBD
ZXJ0aWZpY2F0ZTAdBgNVHQ4EFgQUAo5BlbNdsAabDqBEdvAJYkYQG2YwgaoGA1Ud
IwSBojCBn4AUvltfZaF5AOeAFu6j/fDoYLzuZPmhcaRvMG0xCzAJBgNVBAYTAkNO
MRAwDgYDVQQIEwdCZWlqaW5nMRAwDgYDVQQHEwdCZWlqaW5nMQ4wDAYDVQQKEwVM
aW51eDENMAsGA1UEAxMEa29qaTEbMBkGCSqGSIb3DQEJARYMa29qaUAxNjMuY29t
ghQ8J3tw6H9jBNKn0dxSdzsM1hMekzANBgkqhkiG9w0BAQQFAAOCAQEABdcKh2wh
yWbIcViKr8kb4p5Z/xmlu6920gB4Vg8O/o4dS0B6M+PYg0twNIlUxjThwWW+lHze
V7VeqT2zc3c9lQiUvry60pqhXykbzTfUyMX81NnxeDGyEKPqk2DlhC9Xr6ifTlU0
wKv/Hm3jrySvpwrV6gmiw6Sc6wDwahLvBmlXGuyKKnzgS65xIJimFl/9UmwWrDjP
qgmso2QZxnvvfq5K/z6kTPCmyveGyP0GpQYWWpu1e4oBFMQM697CyfTSUKqDezIa
3QZw8dH83Wh2SBiTX/raL48fHpTffKZ5WpS4lYC++UOUQ0AjUDHed3y+hhz7acCK
9s0MBOSTCou7Ng==
-----END CERTIFICATE-----
