Certificate:
    Data:
        Version: 3 (0x2)
        Serial Number: 4 (0x4)
        Signature Algorithm: md5WithRSAEncryption
        Issuer: C=CN, ST=Beijing, L=Beijing, O=Linux, CN=koji/emailAddress=koji@163.com
        Validity
            Not Before: Aug  8 03:27:31 2022 GMT
            Not After : Aug  5 03:27:31 2032 GMT
        Subject: C=CN, ST=Beijing, O=Linux, CN=kojibuilder1/emailAddress=koji@163.com
        Subject Public Key Info:
            Public Key Algorithm: rsaEncryption
                RSA Public-Key: (2048 bit)
                Modulus:
                    00:af:53:18:e3:a3:93:1e:20:8f:4d:85:3c:41:b4:
                    cb:55:27:46:5b:99:ee:55:a4:6c:95:28:87:dc:1b:
                    d2:08:34:6e:7f:39:15:8f:87:2b:f8:69:58:1f:22:
                    fd:83:4c:bc:3e:66:de:06:80:3d:74:09:a9:09:43:
                    ba:e2:3b:a8:43:87:97:dc:6e:3b:18:fe:19:ac:12:
                    03:da:de:75:a8:29:00:12:e1:e9:55:a9:da:91:de:
                    30:85:0b:74:7e:c2:05:32:c6:2a:6a:30:be:75:67:
                    0c:cb:e4:8c:90:80:b9:f0:9f:9a:ed:33:8f:5a:38:
                    0d:ee:98:4c:f4:53:5c:f9:5e:54:6e:56:64:fe:5a:
                    59:8b:00:45:3c:0b:06:7a:1d:6b:93:82:8b:3b:54:
                    68:43:c6:33:1a:fe:23:a3:58:8d:e1:bb:eb:01:b2:
                    fb:4f:62:bc:46:07:12:d2:ef:6a:66:80:6c:f1:9c:
                    ae:42:fd:a7:e1:5e:61:20:ea:18:32:ce:7c:3c:a7:
                    11:a1:f2:10:a1:ec:d1:62:ed:28:66:db:a0:d2:9c:
                    e8:f0:6f:ff:5d:28:d3:42:98:ac:cc:37:a3:23:84:
                    01:fc:46:e3:10:7e:e3:bc:86:07:76:75:dd:90:90:
                    06:17:21:c8:2d:1f:8e:18:a4:bb:e8:b9:44:e2:85:
                    25:b9
                Exponent: 65537 (0x10001)
        X509v3 extensions:
            X509v3 Basic Constraints: 
                CA:FALSE
            Netscape Comment: 
                OpenSSL Generated Certificate
            X509v3 Subject Key Identifier: 
                02:C6:FA:0F:5A:EF:1F:7D:07:50:47:BC:20:68:BC:A4:A6:7A:78:8D
            X509v3 Authority Key Identifier: 
                keyid:BE:5B:5F:65:A1:79:00:E7:80:16:EE:A3:FD:F0:E8:60:BC:EE:64:F9
                DirName:/C=CN/ST=Beijing/L=Beijing/O=Linux/CN=koji/emailAddress=koji@163.com
                serial:3C:27:7B:70:E8:7F:63:04:D2:A7:D1:DC:52:77:3B:0C:D6:13:1E:93

    Signature Algorithm: md5WithRSAEncryption
         43:a7:1d:3f:3e:3d:46:1a:a6:be:ba:12:ca:08:3d:a0:c6:d5:
         7a:63:11:a9:25:cb:9c:7c:ec:66:a4:8c:4f:73:b2:27:e2:ce:
         2d:ce:a0:14:3c:2a:2f:12:fa:81:72:65:52:a6:c6:db:84:12:
         d5:4e:72:11:77:16:96:34:e0:e3:42:2f:93:7e:74:0f:2b:7b:
         a6:aa:25:6c:be:ef:b0:09:9f:df:54:6a:4c:75:6f:d6:16:44:
         7c:69:fc:0e:58:37:d2:96:09:da:6a:a9:2b:15:37:ed:91:29:
         6f:6a:0c:97:1b:5f:8a:d2:90:a9:c0:62:a2:ad:5c:40:3a:03:
         98:12:4a:f5:4d:5a:0e:90:53:c5:5a:64:de:d4:16:d1:17:13:
         c6:f2:6a:b3:a9:a0:ff:d5:fe:57:9a:2a:1d:2b:10:86:5b:24:
         b8:be:21:54:59:d0:d5:dd:0f:c6:ef:ed:84:02:59:e9:14:aa:
         14:59:8e:46:7c:34:c4:52:7a:cf:88:9a:01:5a:76:9f:b6:6f:
         ae:dd:e7:78:75:fa:08:35:1f:8b:8f:85:68:24:61:06:78:1c:
         02:41:de:73:65:d3:a2:2f:f0:1a:96:ec:48:e9:c5:d0:98:85:
         70:9a:7d:ec:fb:30:1c:36:2b:ee:2c:5a:86:34:fe:1c:ac:86:
         86:f9:33:8a
-----BEGIN CERTIFICATE-----
MIIEVjCCAz6gAwIBAgIBBDANBgkqhkiG9w0BAQQFADBtMQswCQYDVQQGEwJDTjEQ
MA4GA1UECBMHQmVpamluZzEQMA4GA1UEBxMHQmVpamluZzEOMAwGA1UEChMFTGlu
dXgxDTALBgNVBAMTBGtvamkxGzAZBgkqhkiG9w0BCQEWDGtvamlAMTYzLmNvbTAe
Fw0yMjA4MDgwMzI3MzFaFw0zMjA4MDUwMzI3MzFaMGMxCzAJBgNVBAYTAkNOMRAw
DgYDVQQIEwdCZWlqaW5nMQ4wDAYDVQQKEwVMaW51eDEVMBMGA1UEAxMMa29qaWJ1
aWxkZXIxMRswGQYJKoZIhvcNAQkBFgxrb2ppQDE2My5jb20wggEiMA0GCSqGSIb3
DQEBAQUAA4IBDwAwggEKAoIBAQCvUxjjo5MeII9NhTxBtMtVJ0Zbme5VpGyVKIfc
G9IING5/ORWPhyv4aVgfIv2DTLw+Zt4GgD10CakJQ7riO6hDh5fcbjsY/hmsEgPa
3nWoKQAS4elVqdqR3jCFC3R+wgUyxipqML51ZwzL5IyQgLnwn5rtM49aOA3umEz0
U1z5XlRuVmT+WlmLAEU8CwZ6HWuTgos7VGhDxjMa/iOjWI3hu+sBsvtPYrxGBxLS
72pmgGzxnK5C/afhXmEg6hgyznw8pxGh8hCh7NFi7Shm26DSnOjwb/9dKNNCmKzM
N6MjhAH8RuMQfuO8hgd2dd2QkAYXIcgtH44YpLvouUTihSW5AgMBAAGjggEJMIIB
BTAJBgNVHRMEAjAAMCwGCWCGSAGG+EIBDQQfFh1PcGVuU1NMIEdlbmVyYXRlZCBD
ZXJ0aWZpY2F0ZTAdBgNVHQ4EFgQUAsb6D1rvH30HUEe8IGi8pKZ6eI0wgaoGA1Ud
IwSBojCBn4AUvltfZaF5AOeAFu6j/fDoYLzuZPmhcaRvMG0xCzAJBgNVBAYTAkNO
MRAwDgYDVQQIEwdCZWlqaW5nMRAwDgYDVQQHEwdCZWlqaW5nMQ4wDAYDVQQKEwVM
aW51eDENMAsGA1UEAxMEa29qaTEbMBkGCSqGSIb3DQEJARYMa29qaUAxNjMuY29t
ghQ8J3tw6H9jBNKn0dxSdzsM1hMekzANBgkqhkiG9w0BAQQFAAOCAQEAQ6cdPz49
RhqmvroSygg9oMbVemMRqSXLnHzsZqSMT3OyJ+LOLc6gFDwqLxL6gXJlUqbG24QS
1U5yEXcWljTg40Ivk350Dyt7pqolbL7vsAmf31RqTHVv1hZEfGn8Dlg30pYJ2mqp
KxU37ZEpb2oMlxtfitKQqcBioq1cQDoDmBJK9U1aDpBTxVpk3tQW0RcTxvJqs6mg
/9X+V5oqHSsQhlskuL4hVFnQ1d0Pxu/thAJZ6RSqFFmORnw0xFJ6z4iaAVp2n7Zv
rt3neHX6CDUfi4+FaCRhBngcAkHec2XToi/wGpbsSOnF0JiFcJp97PswHDYr7ixa
hjT+HKyGhvkzig==
-----END CERTIFICATE-----
-----BEGIN RSA PRIVATE KEY-----
MIIEpQIBAAKCAQEAr1MY46OTHiCPTYU8QbTLVSdGW5nuVaRslSiH3BvSCDRufzkV
j4cr+GlYHyL9g0y8PmbeBoA9dAmpCUO64juoQ4eX3G47GP4ZrBID2t51qCkAEuHp
Vanakd4whQt0fsIFMsYqajC+dWcMy+SMkIC58J+a7TOPWjgN7phM9FNc+V5UblZk
/lpZiwBFPAsGeh1rk4KLO1RoQ8YzGv4jo1iN4bvrAbL7T2K8RgcS0u9qZoBs8Zyu
Qv2n4V5hIOoYMs58PKcRofIQoezRYu0oZtug0pzo8G//XSjTQpiszDejI4QB/Ebj
EH7jvIYHdnXdkJAGFyHILR+OGKS76LlE4oUluQIDAQABAoIBAQCvHE8ipjD9iUW4
BpgdhGcGAPk76m3qqhQtklLH3B2WRlAKz8giF78qGIWEa91LM+xcYz/kvFcku7VS
ZIyXA0DXWemqp4ptNvYLL98bzs8zCuhg87Sq88AzqvlJGRzcsgqhIN4iO9cuyaM1
Tmu6tGeC1tbVjYbjdFMt+H38FfspsI7D+rYmEn0CaD+UGICH2QKpS1jLw4/rdWm0
aA/DiKMH2J625Y5RTPZwNj/G/Lk05Z6DkhFQbmoxvXHJ86RMHLG2uvuZEF928XjC
6a7VK8PcE8WRfSPVKrp51iDZPgXDYML8zHCCsUykjLDdh79CLyK/PPHTcNx7ap38
zE7Jd9CBAoGBAOAQbsdkOtdZAXxvc80pb702rqzJcxX1tQHjcxdm0CrJbqL6ZIRX
hx3q66J3KoUoPRRieYTvhgA8JpkhIKJt8CV4RFeAZiZs5dvj1fi88ZflZGqE95Bw
WToeZio8bry9tLrWusJ7xsO6b1FxP/w3zGZqs6Ud+K3oOsMZygoHlbLpAoGBAMhQ
Re6UVBVWgcs+ACQQxWstylhqaKhinDLzQjWWss+fT0sWu/SKwKtM7WAniEZXm1dN
j1fTUWE1U50PI8RjYEMI3yo0Faov9HUVFAbxfoa4Mn/srJizZVGzliegWiQ2fCYg
zDwOEMMGi8C5StcGpeORAfuemHRQ2OGhXd9p8PpRAoGBAKONmy9UjFbxE1KfkCnr
2zKEndBmY+ldpzivrC0i0UTKMEYq/ABWW7yM5F99GL6F9r/Qed99b5TwU0RnmAi4
sxjGxywP/4CA8PAnSOL+GGPGABx43rTCLX9s/SpLXpHK8AeKAl1AOIBasDMEta4H
lN4VePhH/mQDJhGP25iinLUxAoGBAIDRrsdpOFGomju8GZcX+f2dKv2FINz43X6e
lbukuEVxLCsb6a+v84u2IwmtIqQp/so8JKzURwd+pdDhRZ0sU2GIuQuJB021HT6W
WZTFhRraJg/CgpSI+eV62luNcarMJzbV7MHKQdlJwmIkRw7VRaV9QYsxSNW0kGU5
wwbEOKahAoGARa8fOuT+yoUO4BMv5fSx8OpGwzlYRzGvm6c9OtCgMHDxBZMBeYOl
83hnx9B2U+g5tU25+AQ1ureluOBLb9BeSQLdq1vsL2VY3QEUuMsBqxkTOgrs5uI/
2qWG6qYWLn8/EeFGU0S24qdANtCATDvp7fGCl+YI+qEgqI7MeliJZQI=
-----END RSA PRIVATE KEY-----
