Certificate:
    Data:
        Version: 3 (0x2)
        Serial Number: 1 (0x1)
        Signature Algorithm: md5WithRSAEncryption
        Issuer: C=CN, ST=BeiJing, L=Beijing, O=TurboLinux, CN=koji/emailAddress=jian.li@turbolinux.com.cn
        Validity
            Not Before: Feb 26 10:50:16 2021 GMT
            Not After : Feb 24 10:50:16 2031 GMT
        Subject: C=CN, ST=BeiJing, O=TurboLinux, CN=kojira/emailAddress=jian.li@turbolinux.com.cn
        Subject Public Key Info:
            Public Key Algorithm: rsaEncryption
                RSA Public-Key: (2048 bit)
                Modulus:
                    00:cd:3b:fa:00:41:e8:a5:e8:8b:b1:8b:10:08:14:
                    ee:cf:0c:2b:f5:0a:5a:49:53:04:96:b8:02:91:ce:
                    c4:bb:90:d3:98:1e:bb:4c:ae:db:85:9e:25:52:86:
                    40:0b:7e:92:15:53:80:fd:f4:ed:2c:0f:29:12:f2:
                    7f:47:ec:29:77:09:63:42:9f:f9:e6:82:c5:2b:46:
                    aa:f9:37:e2:e1:d2:d8:28:a8:75:66:37:97:2c:02:
                    bc:a5:90:8c:6f:ea:b5:66:c8:8a:6a:b2:65:8b:0c:
                    ad:62:a1:fd:5d:ea:cd:9d:74:a5:ea:f6:1e:69:34:
                    eb:d6:a4:99:ab:14:18:04:03:c9:f8:53:10:2a:30:
                    10:ff:33:9e:3d:7b:3d:87:47:37:75:2e:d1:43:8c:
                    42:81:02:10:25:21:ef:de:92:58:dd:a4:fe:5a:bd:
                    49:b1:61:b1:d6:1b:01:62:44:a2:1f:4b:bd:63:8a:
                    8a:5e:e4:84:41:5a:88:d9:54:49:28:fc:a2:c0:9f:
                    cc:ef:76:05:d6:1d:1c:07:af:38:99:a8:9a:56:9a:
                    b6:e6:99:81:cd:58:b4:32:e4:44:66:f7:08:db:ea:
                    c3:b9:cc:53:cc:66:1b:c2:6d:44:b5:cd:aa:ce:7a:
                    76:d1:76:f6:a4:6b:78:f7:73:5e:85:0f:c7:e1:cb:
                    38:c5
                Exponent: 65537 (0x10001)
        X509v3 extensions:
            X509v3 Basic Constraints: 
                CA:FALSE
            Netscape Comment: 
                OpenSSL Generated Certificate
            X509v3 Subject Key Identifier: 
                28:D2:B7:69:32:DB:A4:85:64:57:77:AD:58:5F:C4:CF:29:C2:12:63
            X509v3 Authority Key Identifier: 
                keyid:31:DB:99:18:EF:F7:00:5C:10:56:2B:8D:48:85:22:0E:18:B2:4B:CB
                DirName:/C=CN/ST=BeiJing/L=Beijing/O=TurboLinux/CN=koji/emailAddress=jian.li@turbolinux.com.cn
                serial:24:A1:98:82:5A:77:65:F7:8E:E7:EC:50:83:E6:4B:27:64:B8:6F:5C

    Signature Algorithm: md5WithRSAEncryption
         48:1b:40:de:90:83:2f:e4:85:12:df:68:40:2b:5d:c4:b2:dc:
         a0:3d:79:68:8f:37:ca:d0:c3:c8:b2:27:2c:25:11:7d:8c:2d:
         f1:0e:b7:bd:6c:c7:4c:76:fe:41:47:b7:91:ab:8b:3c:8a:ac:
         c0:57:bb:8d:26:5c:16:20:52:f2:3d:8f:a8:3d:6d:4d:e7:1d:
         80:2e:1c:ff:27:73:87:3f:21:9e:78:5e:7f:8a:7b:43:42:47:
         7d:6e:2f:f5:dd:92:e2:b2:3e:9b:9b:b5:aa:5c:e5:b5:27:45:
         c0:93:47:b0:9b:66:0d:04:d2:4a:99:a5:59:e6:bd:6e:b5:86:
         ea:2e:8d:76:98:87:cf:66:04:e8:61:34:84:cb:56:71:74:a9:
         bc:b3:bc:a1:96:a2:1d:12:24:8a:96:ac:4b:da:4c:79:c7:ee:
         e5:f4:ab:7c:97:21:1f:f0:06:ee:40:15:4a:5c:53:d0:6f:5d:
         86:b3:6e:27:2f:27:d4:4f:55:60:a2:af:d9:c2:42:2b:fd:05:
         67:95:f5:d6:3a:ac:d7:6e:73:36:4d:07:ab:5a:ac:64:ab:a3:
         1c:71:9e:a0:37:3f:f2:02:b1:37:24:44:c7:57:4e:8e:f9:10:
         b4:bb:5c:9a:d4:32:1c:ca:15:12:eb:0f:8b:39:ec:82:38:f4:
         6d:01:21:54
-----BEGIN CERTIFICATE-----
MIIEiDCCA3CgAwIBAgIBATANBgkqhkiG9w0BAQQFADB/MQswCQYDVQQGEwJDTjEQ
MA4GA1UECBMHQmVpSmluZzEQMA4GA1UEBxMHQmVpamluZzETMBEGA1UEChMKVHVy
Ym9MaW51eDENMAsGA1UEAxMEa29qaTEoMCYGCSqGSIb3DQEJARYZamlhbi5saUB0
dXJib2xpbnV4LmNvbS5jbjAeFw0yMTAyMjYxMDUwMTZaFw0zMTAyMjQxMDUwMTZa
MG8xCzAJBgNVBAYTAkNOMRAwDgYDVQQIEwdCZWlKaW5nMRMwEQYDVQQKEwpUdXJi
b0xpbnV4MQ8wDQYDVQQDEwZrb2ppcmExKDAmBgkqhkiG9w0BCQEWGWppYW4ubGlA
dHVyYm9saW51eC5jb20uY24wggEiMA0GCSqGSIb3DQEBAQUAA4IBDwAwggEKAoIB
AQDNO/oAQeil6IuxixAIFO7PDCv1ClpJUwSWuAKRzsS7kNOYHrtMrtuFniVShkAL
fpIVU4D99O0sDykS8n9H7Cl3CWNCn/nmgsUrRqr5N+Lh0tgoqHVmN5csArylkIxv
6rVmyIpqsmWLDK1iof1d6s2ddKXq9h5pNOvWpJmrFBgEA8n4UxAqMBD/M549ez2H
Rzd1LtFDjEKBAhAlIe/ekljdpP5avUmxYbHWGwFiRKIfS71jiope5IRBWojZVEko
/KLAn8zvdgXWHRwHrziZqJpWmrbmmYHNWLQy5ERm9wjb6sO5zFPMZhvCbUS1zarO
enbRdvaka3j3c16FD8fhyzjFAgMBAAGjggEdMIIBGTAJBgNVHRMEAjAAMCwGCWCG
SAGG+EIBDQQfFh1PcGVuU1NMIEdlbmVyYXRlZCBDZXJ0aWZpY2F0ZTAdBgNVHQ4E
FgQUKNK3aTLbpIVkV3etWF/EzynCEmMwgb4GA1UdIwSBtjCBs4AUMduZGO/3AFwQ
ViuNSIUiDhiyS8uhgYSkgYEwfzELMAkGA1UEBhMCQ04xEDAOBgNVBAgTB0JlaUpp
bmcxEDAOBgNVBAcTB0JlaWppbmcxEzARBgNVBAoTClR1cmJvTGludXgxDTALBgNV
BAMTBGtvamkxKDAmBgkqhkiG9w0BCQEWGWppYW4ubGlAdHVyYm9saW51eC5jb20u
Y26CFCShmIJad2X3jufsUIPmSydkuG9cMA0GCSqGSIb3DQEBBAUAA4IBAQBIG0De
kIMv5IUS32hAK13EstygPXlojzfK0MPIsicsJRF9jC3xDre9bMdMdv5BR7eRq4s8
iqzAV7uNJlwWIFLyPY+oPW1N5x2ALhz/J3OHPyGeeF5/intDQkd9bi/13ZLisj6b
m7WqXOW1J0XAk0ewm2YNBNJKmaVZ5r1utYbqLo12mIfPZgToYTSEy1ZxdKm8s7yh
lqIdEiSKlqxL2kx5x+7l9Kt8lyEf8AbuQBVKXFPQb12Gs24nLyfUT1Vgoq/ZwkIr
/QVnlfXWOqzXbnM2TQerWqxkq6MccZ6gNz/yArE3JETHV06O+RC0u1ya1DIcyhUS
6w+LOeyCOPRtASFU
-----END CERTIFICATE-----
