Certificate:
    Data:
        Version: 3 (0x2)
        Serial Number: 4 (0x4)
        Signature Algorithm: md5WithRSAEncryption
        Issuer: C=CN, ST=BeiJing, L=Beijing, O=TurboLinux, CN=koji/emailAddress=jian.li@turbolinux.com.cn
        Validity
            Not Before: Feb 26 10:51:01 2021 GMT
            Not After : Feb 24 10:51:01 2031 GMT
        Subject: C=CN, ST=BeiJing, O=TurboLinux, CN=kojibuilder1/emailAddress=jian.li@turbolinux.com.cn
        Subject Public Key Info:
            Public Key Algorithm: rsaEncryption
                RSA Public-Key: (2048 bit)
                Modulus:
                    00:9c:ca:bb:a0:e9:7c:3b:9d:d1:50:96:56:52:69:
                    d0:98:41:18:d9:64:b1:d0:47:e0:58:7b:79:ce:be:
                    7f:ba:5f:d1:bf:da:5f:03:f2:72:ed:8c:0d:1a:d6:
                    0e:70:66:e3:1f:39:63:aa:e4:c7:a7:dc:f4:db:d6:
                    4f:00:03:a5:cd:20:bc:aa:71:76:35:b6:d6:0a:34:
                    ef:c1:16:99:0e:fd:8e:58:89:40:26:d9:c9:8c:85:
                    1a:47:d7:c5:4f:9a:9f:bf:c3:2f:e1:f7:af:af:2e:
                    93:14:a1:24:2c:f2:d0:03:f0:01:f6:b9:7e:00:c5:
                    8e:da:9b:48:31:3a:95:e9:89:17:13:03:53:dc:cd:
                    e9:14:1f:2f:94:61:45:95:b0:dd:f8:a0:c6:d1:fa:
                    d8:8b:9e:49:d6:e6:6a:44:61:1b:09:f8:a6:58:da:
                    20:23:54:70:f2:39:7c:84:8f:4b:e2:b3:ee:05:ce:
                    05:ee:31:ed:9a:94:a4:61:72:7d:86:0b:6e:d5:f3:
                    43:81:d2:8a:ad:1e:21:29:4e:fc:a4:a3:6a:1a:b9:
                    e3:0e:7d:a2:1e:fd:79:15:42:7d:e7:71:f3:fe:09:
                    d9:4a:a3:a0:a3:a3:af:db:08:ff:9b:c7:e7:8e:ae:
                    5c:91:7f:3b:72:bd:59:9d:37:8e:f2:e2:5e:ad:4b:
                    f4:1b
                Exponent: 65537 (0x10001)
        X509v3 extensions:
            X509v3 Basic Constraints: 
                CA:FALSE
            Netscape Comment: 
                OpenSSL Generated Certificate
            X509v3 Subject Key Identifier: 
                58:BA:7F:6A:AC:59:AD:96:8E:7E:7F:2C:BC:48:AE:DE:3C:DD:4E:84
            X509v3 Authority Key Identifier: 
                keyid:31:DB:99:18:EF:F7:00:5C:10:56:2B:8D:48:85:22:0E:18:B2:4B:CB
                DirName:/C=CN/ST=BeiJing/L=Beijing/O=TurboLinux/CN=koji/emailAddress=jian.li@turbolinux.com.cn
                serial:24:A1:98:82:5A:77:65:F7:8E:E7:EC:50:83:E6:4B:27:64:B8:6F:5C

    Signature Algorithm: md5WithRSAEncryption
         76:55:1c:78:b2:6d:df:e0:f3:20:41:86:61:02:21:05:d1:36:
         48:6d:00:d3:19:9f:3f:e9:e1:ad:6d:3c:bb:34:f7:7d:c5:72:
         7a:1d:b5:82:94:e9:9f:ab:65:b2:96:2c:4d:e9:50:f8:7c:c9:
         c6:67:c0:8f:80:8d:04:99:25:0c:f2:94:4e:7b:9d:12:fc:28:
         2e:6a:37:db:30:dd:35:d7:c9:3d:90:77:55:5f:4f:c0:af:6e:
         69:5a:e7:8b:84:aa:df:2b:fa:33:99:dc:d8:aa:0f:be:f8:75:
         e3:18:2a:6c:cf:99:01:25:ae:8a:cb:b6:a7:37:41:c5:02:8e:
         0c:6d:59:24:96:5c:61:28:f8:0e:cd:d1:e8:b3:4c:7c:84:4c:
         80:7c:a6:79:2e:22:df:61:26:4c:e5:06:c6:84:1d:ac:8a:2f:
         ae:fd:96:d9:a4:b0:42:aa:b9:e3:ce:16:a4:ba:14:ef:78:b1:
         be:14:48:c6:ac:ea:9c:98:3c:d6:df:e7:e8:f0:89:a5:01:c1:
         8e:3a:22:42:e9:9d:dd:dc:40:74:73:f4:02:29:25:f1:41:3d:
         de:3e:15:31:d4:a1:7d:4f:ad:a3:20:ab:50:e6:51:31:0a:68:
         f7:f2:d1:5a:8e:49:2d:3f:a5:9b:84:86:3b:6d:49:e2:dd:e9:
         a0:c6:5f:25
-----BEGIN CERTIFICATE-----
MIIEjjCCA3agAwIBAgIBBDANBgkqhkiG9w0BAQQFADB/MQswCQYDVQQGEwJDTjEQ
MA4GA1UECBMHQmVpSmluZzEQMA4GA1UEBxMHQmVpamluZzETMBEGA1UEChMKVHVy
Ym9MaW51eDENMAsGA1UEAxMEa29qaTEoMCYGCSqGSIb3DQEJARYZamlhbi5saUB0
dXJib2xpbnV4LmNvbS5jbjAeFw0yMTAyMjYxMDUxMDFaFw0zMTAyMjQxMDUxMDFa
MHUxCzAJBgNVBAYTAkNOMRAwDgYDVQQIEwdCZWlKaW5nMRMwEQYDVQQKEwpUdXJi
b0xpbnV4MRUwEwYDVQQDEwxrb2ppYnVpbGRlcjExKDAmBgkqhkiG9w0BCQEWGWpp
YW4ubGlAdHVyYm9saW51eC5jb20uY24wggEiMA0GCSqGSIb3DQEBAQUAA4IBDwAw
ggEKAoIBAQCcyrug6Xw7ndFQllZSadCYQRjZZLHQR+BYe3nOvn+6X9G/2l8D8nLt
jA0a1g5wZuMfOWOq5Men3PTb1k8AA6XNILyqcXY1ttYKNO/BFpkO/Y5YiUAm2cmM
hRpH18VPmp+/wy/h96+vLpMUoSQs8tAD8AH2uX4AxY7am0gxOpXpiRcTA1PczekU
Hy+UYUWVsN34oMbR+tiLnknW5mpEYRsJ+KZY2iAjVHDyOXyEj0vis+4FzgXuMe2a
lKRhcn2GC27V80OB0oqtHiEpTvyko2oaueMOfaIe/XkVQn3ncfP+CdlKo6Cjo6/b
CP+bx+eOrlyRfztyvVmdN47y4l6tS/QbAgMBAAGjggEdMIIBGTAJBgNVHRMEAjAA
MCwGCWCGSAGG+EIBDQQfFh1PcGVuU1NMIEdlbmVyYXRlZCBDZXJ0aWZpY2F0ZTAd
BgNVHQ4EFgQUWLp/aqxZrZaOfn8svEiu3jzdToQwgb4GA1UdIwSBtjCBs4AUMduZ
GO/3AFwQViuNSIUiDhiyS8uhgYSkgYEwfzELMAkGA1UEBhMCQ04xEDAOBgNVBAgT
B0JlaUppbmcxEDAOBgNVBAcTB0JlaWppbmcxEzARBgNVBAoTClR1cmJvTGludXgx
DTALBgNVBAMTBGtvamkxKDAmBgkqhkiG9w0BCQEWGWppYW4ubGlAdHVyYm9saW51
eC5jb20uY26CFCShmIJad2X3jufsUIPmSydkuG9cMA0GCSqGSIb3DQEBBAUAA4IB
AQB2VRx4sm3f4PMgQYZhAiEF0TZIbQDTGZ8/6eGtbTy7NPd9xXJ6HbWClOmfq2Wy
lixN6VD4fMnGZ8CPgI0EmSUM8pROe50S/CguajfbMN0118k9kHdVX0/Ar25pWueL
hKrfK/ozmdzYqg+++HXjGCpsz5kBJa6Ky7anN0HFAo4MbVkkllxhKPgOzdHos0x8
hEyAfKZ5LiLfYSZM5QbGhB2sii+u/ZbZpLBCqrnjzhakuhTveLG+FEjGrOqcmDzW
3+fo8ImlAcGOOiJC6Z3d3EB0c/QCKSXxQT3ePhUx1KF9T62jIKtQ5lExCmj38tFa
jkktP6WbhIY7bUni3emgxl8l
-----END CERTIFICATE-----
