Certificate:
    Data:
        Version: 3 (0x2)
        Serial Number: 6 (0x6)
        Signature Algorithm: md5WithRSAEncryption
        Issuer: C=CN, ST=BeiJing, L=Beijing, O=TurboLinux, CN=koji/emailAddress=jian.li@turbolinux.com.cn
        Validity
            Not Before: Feb 26 10:51:27 2021 GMT
            Not After : Feb 24 10:51:27 2031 GMT
        Subject: C=CN, ST=BeiJing, O=TurboLinux, CN=kojibuilder3/emailAddress=jian.li@turbolinux.com.cn
        Subject Public Key Info:
            Public Key Algorithm: rsaEncryption
                RSA Public-Key: (2048 bit)
                Modulus:
                    00:ae:59:10:39:dd:d9:c7:d2:9d:f1:f2:81:f5:71:
                    79:b8:64:61:f8:ae:34:31:7a:08:fd:49:d0:78:e2:
                    1b:09:df:0e:14:d5:cc:aa:1d:c7:f2:82:14:61:08:
                    7c:8b:b7:f2:ec:b2:a4:51:44:2e:03:88:03:ea:e0:
                    75:67:90:ff:41:ad:39:97:ef:2f:42:1d:19:19:3d:
                    2f:5a:f0:b9:19:df:74:6c:1f:94:6e:0d:04:93:83:
                    ac:18:1e:ec:71:70:ca:db:55:13:2c:01:30:3b:a4:
                    6b:86:43:da:2a:25:d0:49:08:83:67:09:9f:61:fd:
                    f5:5f:c8:e6:9e:1d:a9:f6:d5:d3:95:11:d9:c7:05:
                    e3:c3:84:64:ef:d1:a7:cf:c1:60:14:a6:ff:31:32:
                    87:f7:ed:5b:39:1d:85:b5:0b:64:75:ef:a3:75:1b:
                    6b:f7:21:d7:42:f5:b2:60:39:74:19:50:b2:d1:db:
                    f6:9b:0b:90:9e:bf:7b:1c:91:42:ec:ad:f6:10:4e:
                    82:23:c2:74:92:65:6f:88:b2:8c:cc:7a:b5:c0:55:
                    a1:6d:bb:5e:b4:11:4e:78:27:8d:73:6f:9b:45:d6:
                    38:10:5c:6a:53:dd:b0:6c:4d:e1:84:c3:1a:99:07:
                    dd:c2:10:4d:82:97:6c:06:4a:80:e6:c4:04:a2:67:
                    ae:8d
                Exponent: 65537 (0x10001)
        X509v3 extensions:
            X509v3 Basic Constraints: 
                CA:FALSE
            Netscape Comment: 
                OpenSSL Generated Certificate
            X509v3 Subject Key Identifier: 
                14:E3:82:E7:0A:F0:AB:D5:5C:7C:73:59:2F:E0:A3:B4:9A:20:49:68
            X509v3 Authority Key Identifier: 
                keyid:31:DB:99:18:EF:F7:00:5C:10:56:2B:8D:48:85:22:0E:18:B2:4B:CB
                DirName:/C=CN/ST=BeiJing/L=Beijing/O=TurboLinux/CN=koji/emailAddress=jian.li@turbolinux.com.cn
                serial:24:A1:98:82:5A:77:65:F7:8E:E7:EC:50:83:E6:4B:27:64:B8:6F:5C

    Signature Algorithm: md5WithRSAEncryption
         14:bf:54:1b:3e:da:db:c1:b3:52:84:65:60:42:a5:87:65:a9:
         97:f3:ba:1d:cf:95:fd:73:92:a7:34:8a:a4:27:89:3f:7d:8f:
         03:1e:15:61:c6:77:c8:80:48:a9:8b:1e:46:b8:66:89:bd:ca:
         f5:bb:a7:36:4c:88:31:83:a1:d0:e5:50:c7:04:2d:c6:c6:2b:
         8c:c0:71:0e:e9:f2:62:22:10:c2:48:ae:be:33:31:c9:1f:bc:
         40:ca:bb:96:51:13:68:50:4a:83:e7:b7:1d:42:75:d9:88:4e:
         e0:cf:8f:79:89:23:44:08:4a:49:e7:ef:72:6c:83:f2:eb:3a:
         c6:94:3a:a4:b5:b4:39:36:33:6d:5c:f3:d1:8d:a2:4e:33:c9:
         21:68:d1:a8:70:22:2c:7b:78:8e:62:ca:b4:54:3c:bf:fe:6f:
         33:95:a7:15:17:da:d1:6b:68:c8:2c:58:f0:43:d0:23:7c:5b:
         b7:e3:2a:33:2d:3e:1c:4f:04:46:52:6e:75:7e:df:2a:6d:f1:
         64:b4:a1:3f:58:01:80:83:98:67:46:53:1d:98:61:4d:a2:33:
         80:10:d4:c9:4f:06:79:b1:79:16:2a:9a:d0:6b:55:12:44:fd:
         a4:a0:0b:3d:0b:30:c7:c9:79:32:5c:81:e7:95:23:3f:e5:b5:
         a8:f0:21:65
-----BEGIN CERTIFICATE-----
MIIEjjCCA3agAwIBAgIBBjANBgkqhkiG9w0BAQQFADB/MQswCQYDVQQGEwJDTjEQ
MA4GA1UECBMHQmVpSmluZzEQMA4GA1UEBxMHQmVpamluZzETMBEGA1UEChMKVHVy
Ym9MaW51eDENMAsGA1UEAxMEa29qaTEoMCYGCSqGSIb3DQEJARYZamlhbi5saUB0
dXJib2xpbnV4LmNvbS5jbjAeFw0yMTAyMjYxMDUxMjdaFw0zMTAyMjQxMDUxMjda
MHUxCzAJBgNVBAYTAkNOMRAwDgYDVQQIEwdCZWlKaW5nMRMwEQYDVQQKEwpUdXJi
b0xpbnV4MRUwEwYDVQQDEwxrb2ppYnVpbGRlcjMxKDAmBgkqhkiG9w0BCQEWGWpp
YW4ubGlAdHVyYm9saW51eC5jb20uY24wggEiMA0GCSqGSIb3DQEBAQUAA4IBDwAw
ggEKAoIBAQCuWRA53dnH0p3x8oH1cXm4ZGH4rjQxegj9SdB44hsJ3w4U1cyqHcfy
ghRhCHyLt/LssqRRRC4DiAPq4HVnkP9BrTmX7y9CHRkZPS9a8LkZ33RsH5RuDQST
g6wYHuxxcMrbVRMsATA7pGuGQ9oqJdBJCINnCZ9h/fVfyOaeHan21dOVEdnHBePD
hGTv0afPwWAUpv8xMof37Vs5HYW1C2R176N1G2v3IddC9bJgOXQZULLR2/abC5Ce
v3sckULsrfYQToIjwnSSZW+IsozMerXAVaFtu160EU54J41zb5tF1jgQXGpT3bBs
TeGEwxqZB93CEE2Cl2wGSoDmxASiZ66NAgMBAAGjggEdMIIBGTAJBgNVHRMEAjAA
MCwGCWCGSAGG+EIBDQQfFh1PcGVuU1NMIEdlbmVyYXRlZCBDZXJ0aWZpY2F0ZTAd
BgNVHQ4EFgQUFOOC5wrwq9VcfHNZL+CjtJogSWgwgb4GA1UdIwSBtjCBs4AUMduZ
GO/3AFwQViuNSIUiDhiyS8uhgYSkgYEwfzELMAkGA1UEBhMCQ04xEDAOBgNVBAgT
B0JlaUppbmcxEDAOBgNVBAcTB0JlaWppbmcxEzARBgNVBAoTClR1cmJvTGludXgx
DTALBgNVBAMTBGtvamkxKDAmBgkqhkiG9w0BCQEWGWppYW4ubGlAdHVyYm9saW51
eC5jb20uY26CFCShmIJad2X3jufsUIPmSydkuG9cMA0GCSqGSIb3DQEBBAUAA4IB
AQAUv1QbPtrbwbNShGVgQqWHZamX87odz5X9c5KnNIqkJ4k/fY8DHhVhxnfIgEip
ix5GuGaJvcr1u6c2TIgxg6HQ5VDHBC3GxiuMwHEO6fJiIhDCSK6+MzHJH7xAyruW
URNoUEqD57cdQnXZiE7gz495iSNECEpJ5+9ybIPy6zrGlDqktbQ5NjNtXPPRjaJO
M8khaNGocCIse3iOYsq0VDy//m8zlacVF9rRa2jILFjwQ9AjfFu34yozLT4cTwRG
Um51ft8qbfFktKE/WAGAg5hnRlMdmGFNojOAENTJTwZ5sXkWKprQa1USRP2koAs9
CzDHyXkyXIHnlSM/5bWo8CFl
-----END CERTIFICATE-----
