Certificate:
    Data:
        Version: 3 (0x2)
        Serial Number: 7 (0x7)
        Signature Algorithm: md5WithRSAEncryption
        Issuer: C=CN, ST=BeiJing, L=Beijing, O=TurboLinux, CN=koji/emailAddress=jian.li@turbolinux.com.cn
        Validity
            Not Before: Feb 26 10:51:38 2021 GMT
            Not After : Feb 24 10:51:38 2031 GMT
        Subject: C=CN, ST=BeiJing, O=TurboLinux, CN=kojibuilder4/emailAddress=jian.li@turbolinux.com.cn
        Subject Public Key Info:
            Public Key Algorithm: rsaEncryption
                RSA Public-Key: (2048 bit)
                Modulus:
                    00:ac:29:c0:32:e9:6a:cb:4d:2f:63:2e:00:8a:34:
                    7d:51:f6:27:4d:62:03:25:6d:94:19:cd:c5:e6:23:
                    73:b6:73:b9:20:f2:23:e0:6a:b9:99:9b:90:3b:69:
                    af:97:b9:30:bd:e9:d6:29:5e:b4:ab:a2:bc:d3:1d:
                    16:c6:47:3a:9a:a1:e6:f6:eb:41:bf:df:9e:10:7f:
                    d1:c4:fe:5f:78:be:43:fe:07:bf:eb:e3:f3:cf:12:
                    90:f1:26:88:c1:1f:c4:38:46:99:cb:b6:27:cf:ab:
                    ad:23:c1:b0:41:72:71:f0:d6:5c:1d:2f:4e:2b:09:
                    60:a4:50:db:ad:25:36:13:a1:12:e8:ed:15:47:b9:
                    c8:ba:f2:bc:a3:3d:8e:e8:e0:3d:84:ea:37:a1:88:
                    8e:a9:d9:32:ac:1c:4b:b8:d1:2a:a6:79:33:96:05:
                    92:e4:0b:6a:3c:1e:39:0c:d8:c2:b9:92:12:f4:5a:
                    50:9d:e2:fb:b1:ae:eb:88:c3:be:e2:8f:72:a4:54:
                    93:eb:97:43:b9:12:c6:24:5a:75:05:77:e6:89:91:
                    1a:4b:1c:45:cc:0b:8f:6d:82:f3:34:f4:74:32:f3:
                    7c:38:2d:28:ce:11:44:4c:5f:3b:85:e0:ae:84:99:
                    ac:fe:15:f3:f3:36:03:f5:e1:ad:d8:ff:81:08:4e:
                    7a:8b
                Exponent: 65537 (0x10001)
        X509v3 extensions:
            X509v3 Basic Constraints: 
                CA:FALSE
            Netscape Comment: 
                OpenSSL Generated Certificate
            X509v3 Subject Key Identifier: 
                92:68:FC:F6:6D:62:CC:A2:DA:22:82:96:DB:F6:D4:4A:B5:85:3D:70
            X509v3 Authority Key Identifier: 
                keyid:31:DB:99:18:EF:F7:00:5C:10:56:2B:8D:48:85:22:0E:18:B2:4B:CB
                DirName:/C=CN/ST=BeiJing/L=Beijing/O=TurboLinux/CN=koji/emailAddress=jian.li@turbolinux.com.cn
                serial:24:A1:98:82:5A:77:65:F7:8E:E7:EC:50:83:E6:4B:27:64:B8:6F:5C

    Signature Algorithm: md5WithRSAEncryption
         90:7c:9d:72:e3:af:23:3a:b8:d8:03:0c:be:30:0d:4a:ed:65:
         99:8c:17:5f:85:d4:42:da:fa:26:6c:17:91:e0:f5:8c:7c:44:
         3c:a0:d8:72:a2:3d:b4:54:e5:9e:b4:64:db:36:08:0e:a9:13:
         1e:a5:fc:27:fe:e8:33:65:25:d6:9d:1c:10:5d:5d:c1:ba:05:
         0c:09:40:32:8e:c1:92:9e:36:51:38:b1:b0:1c:b0:c8:8d:d3:
         89:b8:66:ad:7f:ab:99:b4:d7:07:b8:4c:1b:e4:11:46:ed:9e:
         8d:f1:d7:76:69:06:5c:a5:b0:26:b0:09:a5:38:c1:8a:ab:a3:
         d7:c4:a0:3b:70:e4:f7:6f:cf:f0:26:7d:71:a2:ce:1f:e0:3e:
         88:90:6c:d0:4d:1e:5c:49:bf:ab:89:26:07:c3:25:9f:40:5a:
         e8:48:0e:6b:ff:c5:e2:01:a9:bc:b5:5b:63:3f:b8:9f:44:1b:
         4f:09:81:53:ee:06:1b:20:53:58:86:fc:13:34:5e:72:8a:57:
         72:0c:fb:4b:36:dd:52:9d:5b:e8:5e:43:4c:1a:bd:8b:25:83:
         6c:f4:37:dc:43:17:35:df:3e:c0:e1:58:38:69:65:d1:6d:5b:
         b9:1d:05:58:84:60:d8:05:72:37:57:a9:43:79:88:72:65:3e:
         c5:18:4c:8d
-----BEGIN CERTIFICATE-----
MIIEjjCCA3agAwIBAgIBBzANBgkqhkiG9w0BAQQFADB/MQswCQYDVQQGEwJDTjEQ
MA4GA1UECBMHQmVpSmluZzEQMA4GA1UEBxMHQmVpamluZzETMBEGA1UEChMKVHVy
Ym9MaW51eDENMAsGA1UEAxMEa29qaTEoMCYGCSqGSIb3DQEJARYZamlhbi5saUB0
dXJib2xpbnV4LmNvbS5jbjAeFw0yMTAyMjYxMDUxMzhaFw0zMTAyMjQxMDUxMzha
MHUxCzAJBgNVBAYTAkNOMRAwDgYDVQQIEwdCZWlKaW5nMRMwEQYDVQQKEwpUdXJi
b0xpbnV4MRUwEwYDVQQDEwxrb2ppYnVpbGRlcjQxKDAmBgkqhkiG9w0BCQEWGWpp
YW4ubGlAdHVyYm9saW51eC5jb20uY24wggEiMA0GCSqGSIb3DQEBAQUAA4IBDwAw
ggEKAoIBAQCsKcAy6WrLTS9jLgCKNH1R9idNYgMlbZQZzcXmI3O2c7kg8iPgarmZ
m5A7aa+XuTC96dYpXrSrorzTHRbGRzqaoeb260G/354Qf9HE/l94vkP+B7/r4/PP
EpDxJojBH8Q4RpnLtifPq60jwbBBcnHw1lwdL04rCWCkUNutJTYToRLo7RVHuci6
8ryjPY7o4D2E6jehiI6p2TKsHEu40SqmeTOWBZLkC2o8HjkM2MK5khL0WlCd4vux
ruuIw77ij3KkVJPrl0O5EsYkWnUFd+aJkRpLHEXMC49tgvM09HQy83w4LSjOEURM
XzuF4K6Emaz+FfPzNgP14a3Y/4EITnqLAgMBAAGjggEdMIIBGTAJBgNVHRMEAjAA
MCwGCWCGSAGG+EIBDQQfFh1PcGVuU1NMIEdlbmVyYXRlZCBDZXJ0aWZpY2F0ZTAd
BgNVHQ4EFgQUkmj89m1izKLaIoKW2/bUSrWFPXAwgb4GA1UdIwSBtjCBs4AUMduZ
GO/3AFwQViuNSIUiDhiyS8uhgYSkgYEwfzELMAkGA1UEBhMCQ04xEDAOBgNVBAgT
B0JlaUppbmcxEDAOBgNVBAcTB0JlaWppbmcxEzARBgNVBAoTClR1cmJvTGludXgx
DTALBgNVBAMTBGtvamkxKDAmBgkqhkiG9w0BCQEWGWppYW4ubGlAdHVyYm9saW51
eC5jb20uY26CFCShmIJad2X3jufsUIPmSydkuG9cMA0GCSqGSIb3DQEBBAUAA4IB
AQCQfJ1y468jOrjYAwy+MA1K7WWZjBdfhdRC2vombBeR4PWMfEQ8oNhyoj20VOWe
tGTbNggOqRMepfwn/ugzZSXWnRwQXV3BugUMCUAyjsGSnjZROLGwHLDIjdOJuGat
f6uZtNcHuEwb5BFG7Z6N8dd2aQZcpbAmsAmlOMGKq6PXxKA7cOT3b8/wJn1xos4f
4D6IkGzQTR5cSb+riSYHwyWfQFroSA5r/8XiAam8tVtjP7ifRBtPCYFT7gYbIFNY
hvwTNF5yildyDPtLNt1SnVvoXkNMGr2LJYNs9DfcQxc13z7A4Vg4aWXRbVu5HQVY
hGDYBXI3V6lDeYhyZT7FGEyN
-----END CERTIFICATE-----
