Certificate:
    Data:
        Version: 3 (0x2)
        Serial Number: 10 (0xa)
        Signature Algorithm: md5WithRSAEncryption
        Issuer: C=CN, ST=BeiJing, L=Beijing, O=TurboLinux, CN=koji/emailAddress=jian.li@turbolinux.com.cn
        Validity
            Not Before: Feb 26 10:52:32 2021 GMT
            Not After : Feb 24 10:52:32 2031 GMT
        Subject: C=CN, ST=BeiJing, O=TurboLinux, CN=kojiuser/emailAddress=jian.li@turbolinux.com.cn
        Subject Public Key Info:
            Public Key Algorithm: rsaEncryption
                RSA Public-Key: (2048 bit)
                Modulus:
                    00:d8:6e:04:65:05:c3:f4:1e:df:93:55:2f:3f:06:
                    29:f4:bc:ce:ca:6f:2a:ab:21:3e:2d:44:bc:19:02:
                    2f:23:6f:5f:05:02:bd:d6:ac:d2:1e:88:94:23:5f:
                    52:45:ca:a6:b4:f4:d6:22:85:f7:87:a4:9d:a0:d9:
                    4e:22:f3:91:44:a9:65:5f:05:0e:0e:0a:27:0b:c2:
                    63:48:f8:dc:b5:1e:74:48:a2:2e:74:41:a0:f1:69:
                    39:cb:06:2a:8c:b0:bc:2f:5b:50:cc:72:55:b4:ab:
                    2e:dd:79:74:6a:3c:92:63:94:4f:a1:fc:93:d2:d8:
                    e0:5c:f4:da:2c:ca:e2:c6:d0:6a:ef:ca:44:21:22:
                    4d:55:90:80:4c:b3:9b:5f:ad:77:42:03:47:c3:f8:
                    37:ec:f9:ac:4c:d2:94:33:56:15:ad:0b:23:d8:eb:
                    d7:2b:1c:95:f4:79:81:3f:61:bd:cb:31:11:91:4c:
                    d0:c4:53:43:27:0e:28:f4:c1:3e:12:c8:10:2c:27:
                    4b:cf:1d:10:20:35:ff:b7:19:82:69:fd:b2:9f:1e:
                    17:a9:42:f8:8e:ad:e3:a8:84:8c:bf:97:39:21:dd:
                    cd:a1:05:94:5a:3d:00:b6:03:9a:d5:41:6d:aa:c5:
                    5b:ff:0a:4f:31:73:f7:de:4f:c4:1a:22:88:65:4a:
                    d2:45
                Exponent: 65537 (0x10001)
        X509v3 extensions:
            X509v3 Basic Constraints: 
                CA:FALSE
            Netscape Comment: 
                OpenSSL Generated Certificate
            X509v3 Subject Key Identifier: 
                36:04:CF:CD:7A:3B:0E:8F:2D:87:68:9C:11:6D:2B:86:EA:21:02:6F
            X509v3 Authority Key Identifier: 
                keyid:31:DB:99:18:EF:F7:00:5C:10:56:2B:8D:48:85:22:0E:18:B2:4B:CB
                DirName:/C=CN/ST=BeiJing/L=Beijing/O=TurboLinux/CN=koji/emailAddress=jian.li@turbolinux.com.cn
                serial:24:A1:98:82:5A:77:65:F7:8E:E7:EC:50:83:E6:4B:27:64:B8:6F:5C

    Signature Algorithm: md5WithRSAEncryption
         6d:77:3a:3d:61:86:fd:c7:45:7f:e4:d3:13:84:2d:0e:bf:d0:
         84:5d:e6:fb:74:ec:0c:9f:91:74:f3:59:94:63:95:02:99:73:
         28:3f:16:8a:5f:af:e0:35:fe:d6:aa:b5:f3:60:7a:ae:30:a9:
         06:60:08:8a:b2:ab:d4:f5:f7:68:13:fa:ad:4d:cd:b0:7c:d1:
         2b:ed:12:13:63:ad:17:80:aa:d3:d1:c5:86:d0:40:66:78:b8:
         74:a7:8f:06:c1:81:ef:30:f9:8a:86:67:2a:d1:a6:b6:a5:57:
         30:88:73:e1:e6:7f:33:f2:8a:69:56:94:22:2b:aa:2d:32:3c:
         8d:b3:e9:3d:15:5e:c7:e1:9a:9c:25:18:3c:c4:39:1d:c7:74:
         c2:57:e0:f6:4d:9e:72:ab:b5:f6:ae:32:84:16:0d:48:11:d3:
         7d:3a:c7:e0:fb:f0:00:c3:4c:28:e1:2e:94:0e:40:17:79:b2:
         f0:c8:2b:13:1a:93:2a:2e:45:a1:86:67:7c:a2:29:29:da:d2:
         27:0d:e5:31:88:e0:3d:97:95:0e:2a:6e:7a:ec:90:1e:3d:dd:
         06:c9:5e:15:a8:8c:86:1f:e8:62:ed:cd:ef:af:31:8b:14:d1:
         ea:db:f8:f7:4a:82:7f:f2:14:25:ff:86:ed:9e:e1:16:c2:1f:
         54:e4:2d:64
-----BEGIN CERTIFICATE-----
MIIEijCCA3KgAwIBAgIBCjANBgkqhkiG9w0BAQQFADB/MQswCQYDVQQGEwJDTjEQ
MA4GA1UECBMHQmVpSmluZzEQMA4GA1UEBxMHQmVpamluZzETMBEGA1UEChMKVHVy
Ym9MaW51eDENMAsGA1UEAxMEa29qaTEoMCYGCSqGSIb3DQEJARYZamlhbi5saUB0
dXJib2xpbnV4LmNvbS5jbjAeFw0yMTAyMjYxMDUyMzJaFw0zMTAyMjQxMDUyMzJa
MHExCzAJBgNVBAYTAkNOMRAwDgYDVQQIEwdCZWlKaW5nMRMwEQYDVQQKEwpUdXJi
b0xpbnV4MREwDwYDVQQDEwhrb2ppdXNlcjEoMCYGCSqGSIb3DQEJARYZamlhbi5s
aUB0dXJib2xpbnV4LmNvbS5jbjCCASIwDQYJKoZIhvcNAQEBBQADggEPADCCAQoC
ggEBANhuBGUFw/Qe35NVLz8GKfS8zspvKqshPi1EvBkCLyNvXwUCvdas0h6IlCNf
UkXKprT01iKF94eknaDZTiLzkUSpZV8FDg4KJwvCY0j43LUedEiiLnRBoPFpOcsG
KoywvC9bUMxyVbSrLt15dGo8kmOUT6H8k9LY4Fz02izK4sbQau/KRCEiTVWQgEyz
m1+td0IDR8P4N+z5rEzSlDNWFa0LI9jr1ysclfR5gT9hvcsxEZFM0MRTQycOKPTB
PhLIECwnS88dECA1/7cZgmn9sp8eF6lC+I6t46iEjL+XOSHdzaEFlFo9ALYDmtVB
barFW/8KTzFz995PxBoiiGVK0kUCAwEAAaOCAR0wggEZMAkGA1UdEwQCMAAwLAYJ
YIZIAYb4QgENBB8WHU9wZW5TU0wgR2VuZXJhdGVkIENlcnRpZmljYXRlMB0GA1Ud
DgQWBBQ2BM/NejsOjy2HaJwRbSuG6iECbzCBvgYDVR0jBIG2MIGzgBQx25kY7/cA
XBBWK41IhSIOGLJLy6GBhKSBgTB/MQswCQYDVQQGEwJDTjEQMA4GA1UECBMHQmVp
SmluZzEQMA4GA1UEBxMHQmVpamluZzETMBEGA1UEChMKVHVyYm9MaW51eDENMAsG
A1UEAxMEa29qaTEoMCYGCSqGSIb3DQEJARYZamlhbi5saUB0dXJib2xpbnV4LmNv
bS5jboIUJKGYglp3ZfeO5+xQg+ZLJ2S4b1wwDQYJKoZIhvcNAQEEBQADggEBAG13
Oj1hhv3HRX/k0xOELQ6/0IRd5vt07AyfkXTzWZRjlQKZcyg/Fopfr+A1/taqtfNg
eq4wqQZgCIqyq9T192gT+q1NzbB80SvtEhNjrReAqtPRxYbQQGZ4uHSnjwbBge8w
+YqGZyrRpralVzCIc+HmfzPyimlWlCIrqi0yPI2z6T0VXsfhmpwlGDzEOR3HdMJX
4PZNnnKrtfauMoQWDUgR0306x+D78ADDTCjhLpQOQBd5svDIKxMakyouRaGGZ3yi
KSna0icN5TGI4D2XlQ4qbnrskB493QbJXhWojIYf6GLtze+vMYsU0erb+PdKgn/y
FCX/hu2e4RbCH1TkLWQ=
-----END CERTIFICATE-----
