Certificate:
    Data:
        Version: 3 (0x2)
        Serial Number: 8 (0x8)
        Signature Algorithm: md5WithRSAEncryption
        Issuer: C=CN, ST=Beijing, L=Beijing, O=Linux, CN=koji/emailAddress=koji@163.com
        Validity
            Not Before: Aug  8 03:28:41 2022 GMT
            Not After : Aug  5 03:28:41 2032 GMT
        Subject: C=CN, ST=Beijing, O=Linux, CN=kojiuser/emailAddress=koji@163.com
        Subject Public Key Info:
            Public Key Algorithm: rsaEncryption
                RSA Public-Key: (2048 bit)
                Modulus:
                    00:ce:60:4b:96:c9:21:d3:21:83:ed:37:d0:4a:55:
                    59:4e:75:3d:53:e6:dd:82:b1:22:6e:22:ea:2b:41:
                    98:c7:11:8c:d1:0d:e8:10:42:4a:31:e9:03:02:38:
                    25:40:83:2f:f4:7d:b1:e7:a4:05:f8:a2:ad:24:0a:
                    ea:d6:7e:69:b4:f9:8a:36:c0:92:2c:07:2e:d5:fc:
                    bb:7f:9c:73:2a:8f:cc:c2:67:d6:86:9e:2d:b3:d0:
                    18:e8:27:be:b9:c3:14:09:1a:28:e8:3e:ea:8d:35:
                    f9:9b:a0:3f:bb:f2:3e:0c:56:b9:9e:a6:ea:fe:e6:
                    0a:37:1e:86:40:ec:3c:97:2d:f1:0f:61:e0:34:40:
                    1f:0b:65:37:28:0b:96:d1:e5:22:fe:75:e1:0b:04:
                    bd:cf:c3:c0:fd:9e:a1:3d:a0:46:01:00:ca:e4:02:
                    8c:1c:e0:6f:e4:36:48:17:0b:be:b8:f6:d5:63:44:
                    76:37:a9:53:f6:bd:84:5f:c4:dc:bd:31:43:4b:03:
                    ea:bf:ca:af:63:bd:9b:5e:7f:62:0b:53:af:8b:87:
                    75:3d:c1:8d:59:e1:90:bf:03:dd:45:4a:14:64:73:
                    a8:c9:f9:f4:cf:12:5e:a0:27:02:e3:0b:d1:b3:c9:
                    d0:fe:f2:4e:e4:55:46:9a:f3:66:6c:5a:1a:fc:e2:
                    31:71
                Exponent: 65537 (0x10001)
        X509v3 extensions:
            X509v3 Basic Constraints: 
                CA:FALSE
            Netscape Comment: 
                OpenSSL Generated Certificate
            X509v3 Subject Key Identifier: 
                25:C9:37:BF:EB:28:E5:2E:D7:8C:0F:EB:E3:1D:F8:27:01:D4:60:63
            X509v3 Authority Key Identifier: 
                keyid:BE:5B:5F:65:A1:79:00:E7:80:16:EE:A3:FD:F0:E8:60:BC:EE:64:F9
                DirName:/C=CN/ST=Beijing/L=Beijing/O=Linux/CN=koji/emailAddress=koji@163.com
                serial:3C:27:7B:70:E8:7F:63:04:D2:A7:D1:DC:52:77:3B:0C:D6:13:1E:93

    Signature Algorithm: md5WithRSAEncryption
         10:e1:05:8a:31:ad:5e:45:d5:3d:f2:8b:fb:93:6a:7e:ca:06:
         eb:a4:4c:77:42:be:2d:9d:e1:23:b2:9b:33:cb:f6:6e:73:96:
         f9:bb:fb:49:f5:fc:d4:b8:7a:00:6b:91:2d:7e:db:f6:e3:e7:
         49:53:9b:70:cd:0c:72:e1:ad:90:f0:6d:05:fb:dd:ce:a5:4c:
         99:fb:db:b5:9f:92:8d:46:93:21:a1:76:93:d0:0b:db:83:f4:
         38:c1:c5:96:69:e7:83:4f:2d:04:76:01:9f:d9:e1:46:f4:09:
         30:5d:28:66:19:a1:4f:52:c4:ed:2d:32:3a:02:ed:46:1d:88:
         94:32:42:c1:8a:5c:1c:6c:a1:f0:a3:f4:17:95:1a:04:ff:bb:
         2d:ed:41:e6:d9:5a:a0:92:d2:d8:69:54:fc:aa:a1:67:e4:1c:
         3e:39:36:1e:31:d3:e6:f6:69:0b:a2:78:3e:26:fa:c6:89:f5:
         87:fc:47:18:67:36:ad:b0:92:09:0c:89:7b:88:54:45:4a:6c:
         25:9a:2b:82:f6:29:23:b5:79:8f:1d:37:7b:31:9f:96:39:71:
         24:3f:ff:8c:e2:94:34:fc:9e:06:aa:26:47:e4:91:74:d2:d3:
         76:2a:2a:18:37:77:dc:6c:85:bb:6c:e0:fb:64:c4:97:01:bb:
         2e:ce:fe:95
-----BEGIN CERTIFICATE-----
MIIEUjCCAzqgAwIBAgIBCDANBgkqhkiG9w0BAQQFADBtMQswCQYDVQQGEwJDTjEQ
MA4GA1UECBMHQmVpamluZzEQMA4GA1UEBxMHQmVpamluZzEOMAwGA1UEChMFTGlu
dXgxDTALBgNVBAMTBGtvamkxGzAZBgkqhkiG9w0BCQEWDGtvamlAMTYzLmNvbTAe
Fw0yMjA4MDgwMzI4NDFaFw0zMjA4MDUwMzI4NDFaMF8xCzAJBgNVBAYTAkNOMRAw
DgYDVQQIEwdCZWlqaW5nMQ4wDAYDVQQKEwVMaW51eDERMA8GA1UEAxMIa29qaXVz
ZXIxGzAZBgkqhkiG9w0BCQEWDGtvamlAMTYzLmNvbTCCASIwDQYJKoZIhvcNAQEB
BQADggEPADCCAQoCggEBAM5gS5bJIdMhg+030EpVWU51PVPm3YKxIm4i6itBmMcR
jNEN6BBCSjHpAwI4JUCDL/R9seekBfiirSQK6tZ+abT5ijbAkiwHLtX8u3+ccyqP
zMJn1oaeLbPQGOgnvrnDFAkaKOg+6o01+ZugP7vyPgxWuZ6m6v7mCjcehkDsPJct
8Q9h4DRAHwtlNygLltHlIv514QsEvc/DwP2eoT2gRgEAyuQCjBzgb+Q2SBcLvrj2
1WNEdjepU/a9hF/E3L0xQ0sD6r/Kr2O9m15/YgtTr4uHdT3BjVnhkL8D3UVKFGRz
qMn59M8SXqAnAuML0bPJ0P7yTuRVRprzZmxaGvziMXECAwEAAaOCAQkwggEFMAkG
A1UdEwQCMAAwLAYJYIZIAYb4QgENBB8WHU9wZW5TU0wgR2VuZXJhdGVkIENlcnRp
ZmljYXRlMB0GA1UdDgQWBBQlyTe/6yjlLteMD+vjHfgnAdRgYzCBqgYDVR0jBIGi
MIGfgBS+W19loXkA54AW7qP98OhgvO5k+aFxpG8wbTELMAkGA1UEBhMCQ04xEDAO
BgNVBAgTB0JlaWppbmcxEDAOBgNVBAcTB0JlaWppbmcxDjAMBgNVBAoTBUxpbnV4
MQ0wCwYDVQQDEwRrb2ppMRswGQYJKoZIhvcNAQkBFgxrb2ppQDE2My5jb22CFDwn
e3Dof2ME0qfR3FJ3OwzWEx6TMA0GCSqGSIb3DQEBBAUAA4IBAQAQ4QWKMa1eRdU9
8ov7k2p+ygbrpEx3Qr4tneEjspszy/Zuc5b5u/tJ9fzUuHoAa5Etftv24+dJU5tw
zQxy4a2Q8G0F+93OpUyZ+9u1n5KNRpMhoXaT0Avbg/Q4wcWWaeeDTy0EdgGf2eFG
9AkwXShmGaFPUsTtLTI6Au1GHYiUMkLBilwcbKHwo/QXlRoE/7st7UHm2VqgktLY
aVT8qqFn5Bw+OTYeMdPm9mkLong+JvrGifWH/EcYZzatsJIJDIl7iFRFSmwlmiuC
9ikjtXmPHTd7MZ+WOXEkP/+M4pQ0/J4GqiZH5JF00tN2KioYN3fcbIW7bOD7ZMSX
Absuzv6V
-----END CERTIFICATE-----
