Certificate:
    Data:
        Version: 3 (0x2)
        Serial Number: 3 (0x3)
        Signature Algorithm: md5WithRSAEncryption
        Issuer: C=CN, ST=Beijing, L=Beijing, O=Linux, CN=koji/emailAddress=koji@163.com
        Validity
            Not Before: Aug  8 03:27:18 2022 GMT
            Not After : Aug  5 03:27:18 2032 GMT
        Subject: C=CN, ST=Beijing, O=Linux, CN=kojihub/emailAddress=koji@163.com
        Subject Public Key Info:
            Public Key Algorithm: rsaEncryption
                RSA Public-Key: (2048 bit)
                Modulus:
                    00:d6:8f:0f:a8:bf:3a:4d:4e:04:a1:f1:e4:02:ca:
                    d2:f0:8f:c7:1e:25:d0:aa:81:b1:a6:0d:17:a3:67:
                    ad:05:a1:97:7e:c1:87:48:be:d9:da:55:ee:1d:29:
                    3f:90:71:06:a4:0f:d5:30:ca:a2:44:03:12:06:79:
                    4f:9d:27:85:5b:0a:16:d2:86:92:23:fe:e7:81:2c:
                    e8:83:86:73:50:a0:5a:a5:80:6a:ad:b0:11:2a:19:
                    d6:14:c0:96:88:72:97:ec:2f:36:27:d7:8f:34:05:
                    1f:6a:1f:89:ca:b1:39:49:77:fd:8e:ac:5f:91:cf:
                    d3:03:8c:6a:27:5d:18:d7:15:1e:fa:72:4b:19:f7:
                    e5:b6:62:8c:a3:ad:10:6c:d6:73:f3:e0:62:2a:56:
                    2a:67:a8:c4:ba:e8:17:1a:fb:f0:1c:47:90:08:16:
                    e9:b9:42:a1:71:08:37:19:a0:9e:d8:02:6c:da:ad:
                    61:0c:b3:93:e9:29:e7:3a:ca:ba:b2:1d:dd:51:74:
                    d1:e7:75:60:76:d5:26:90:c2:3e:b0:83:02:2f:ae:
                    71:8c:2f:e2:fd:b7:c6:d5:ef:58:f8:96:32:e1:07:
                    2d:72:6b:81:ed:9e:0c:57:33:ef:8d:c6:6d:83:6f:
                    20:48:8a:31:c4:7c:f4:76:c0:aa:2c:5e:c9:95:da:
                    e2:d3
                Exponent: 65537 (0x10001)
        X509v3 extensions:
            X509v3 Basic Constraints: 
                CA:FALSE
            Netscape Comment: 
                OpenSSL Generated Certificate
            X509v3 Subject Key Identifier: 
                8E:B0:39:22:9F:32:93:36:A5:2A:5C:F6:AA:A4:75:EC:89:7D:93:D9
            X509v3 Authority Key Identifier: 
                keyid:BE:5B:5F:65:A1:79:00:E7:80:16:EE:A3:FD:F0:E8:60:BC:EE:64:F9
                DirName:/C=CN/ST=Beijing/L=Beijing/O=Linux/CN=koji/emailAddress=koji@163.com
                serial:3C:27:7B:70:E8:7F:63:04:D2:A7:D1:DC:52:77:3B:0C:D6:13:1E:93

    Signature Algorithm: md5WithRSAEncryption
         6c:ec:db:c0:0a:95:96:2c:69:f5:36:6b:46:61:54:26:46:a8:
         70:68:ce:81:fd:fa:91:f2:26:e9:57:30:9e:e3:ea:06:81:14:
         f5:0e:6d:08:30:7b:95:7d:77:7b:3d:3c:60:fa:7a:07:42:33:
         bb:19:2e:24:dc:c4:66:a9:5e:05:22:28:d6:4b:81:50:6a:c4:
         d2:8d:1e:d4:48:2a:fd:5c:02:57:1b:0a:ff:c5:aa:d2:ff:f7:
         5b:d6:d9:38:54:8c:24:da:e7:41:67:ef:68:47:5f:35:85:41:
         16:98:c9:5f:26:88:4f:2d:41:df:58:b0:4c:2e:15:39:36:79:
         bd:31:64:9c:f3:f9:28:a1:9a:59:ba:4a:d6:fa:5e:33:1e:82:
         95:40:e6:d4:fd:4f:12:51:f7:d0:db:52:b8:c5:58:a3:9b:43:
         72:f8:78:8d:2b:54:15:8a:62:be:93:df:98:41:67:fc:7b:98:
         1b:9f:bf:fc:ce:06:16:16:84:26:8c:ab:bb:b9:76:bd:53:ae:
         38:67:6d:b3:31:6e:d2:45:4a:28:f1:a2:ac:31:a7:7d:51:07:
         f0:c9:c6:1e:28:ad:a1:28:ea:8b:74:2e:5c:7a:49:1c:c2:7b:
         c2:d0:77:28:c9:1f:1b:e1:ed:98:a0:5b:4c:b0:8d:ba:48:bc:
         bd:ca:1a:8c
-----BEGIN CERTIFICATE-----
MIIEUTCCAzmgAwIBAgIBAzANBgkqhkiG9w0BAQQFADBtMQswCQYDVQQGEwJDTjEQ
MA4GA1UECBMHQmVpamluZzEQMA4GA1UEBxMHQmVpamluZzEOMAwGA1UEChMFTGlu
dXgxDTALBgNVBAMTBGtvamkxGzAZBgkqhkiG9w0BCQEWDGtvamlAMTYzLmNvbTAe
Fw0yMjA4MDgwMzI3MThaFw0zMjA4MDUwMzI3MThaMF4xCzAJBgNVBAYTAkNOMRAw
DgYDVQQIEwdCZWlqaW5nMQ4wDAYDVQQKEwVMaW51eDEQMA4GA1UEAxMHa29qaWh1
YjEbMBkGCSqGSIb3DQEJARYMa29qaUAxNjMuY29tMIIBIjANBgkqhkiG9w0BAQEF
AAOCAQ8AMIIBCgKCAQEA1o8PqL86TU4EofHkAsrS8I/HHiXQqoGxpg0Xo2etBaGX
fsGHSL7Z2lXuHSk/kHEGpA/VMMqiRAMSBnlPnSeFWwoW0oaSI/7ngSzog4ZzUKBa
pYBqrbARKhnWFMCWiHKX7C82J9ePNAUfah+JyrE5SXf9jqxfkc/TA4xqJ10Y1xUe
+nJLGffltmKMo60QbNZz8+BiKlYqZ6jEuugXGvvwHEeQCBbpuUKhcQg3GaCe2AJs
2q1hDLOT6SnnOsq6sh3dUXTR53VgdtUmkMI+sIMCL65xjC/i/bfG1e9Y+JYy4Qct
cmuB7Z4MVzPvjcZtg28gSIoxxHz0dsCqLF7Jldri0wIDAQABo4IBCTCCAQUwCQYD
VR0TBAIwADAsBglghkgBhvhCAQ0EHxYdT3BlblNTTCBHZW5lcmF0ZWQgQ2VydGlm
aWNhdGUwHQYDVR0OBBYEFI6wOSKfMpM2pSpc9qqkdeyJfZPZMIGqBgNVHSMEgaIw
gZ+AFL5bX2WheQDngBbuo/3w6GC87mT5oXGkbzBtMQswCQYDVQQGEwJDTjEQMA4G
A1UECBMHQmVpamluZzEQMA4GA1UEBxMHQmVpamluZzEOMAwGA1UEChMFTGludXgx
DTALBgNVBAMTBGtvamkxGzAZBgkqhkiG9w0BCQEWDGtvamlAMTYzLmNvbYIUPCd7
cOh/YwTSp9HcUnc7DNYTHpMwDQYJKoZIhvcNAQEEBQADggEBAGzs28AKlZYsafU2
a0ZhVCZGqHBozoH9+pHyJulXMJ7j6gaBFPUObQgwe5V9d3s9PGD6egdCM7sZLiTc
xGapXgUiKNZLgVBqxNKNHtRIKv1cAlcbCv/FqtL/91vW2ThUjCTa50Fn72hHXzWF
QRaYyV8miE8tQd9YsEwuFTk2eb0xZJzz+Sihmlm6Stb6XjMegpVA5tT9TxJR99Db
UrjFWKObQ3L4eI0rVBWKYr6T35hBZ/x7mBufv/zOBhYWhCaMq7u5dr1TrjhnbbMx
btJFSijxoqwxp31RB/DJxh4oraEo6ot0Llx6SRzCe8LQdyjJHxvh7ZigW0ywjbpI
vL3KGow=
-----END CERTIFICATE-----
-----BEGIN RSA PRIVATE KEY-----
MIIEogIBAAKCAQEA1o8PqL86TU4EofHkAsrS8I/HHiXQqoGxpg0Xo2etBaGXfsGH
SL7Z2lXuHSk/kHEGpA/VMMqiRAMSBnlPnSeFWwoW0oaSI/7ngSzog4ZzUKBapYBq
rbARKhnWFMCWiHKX7C82J9ePNAUfah+JyrE5SXf9jqxfkc/TA4xqJ10Y1xUe+nJL
GffltmKMo60QbNZz8+BiKlYqZ6jEuugXGvvwHEeQCBbpuUKhcQg3GaCe2AJs2q1h
DLOT6SnnOsq6sh3dUXTR53VgdtUmkMI+sIMCL65xjC/i/bfG1e9Y+JYy4QctcmuB
7Z4MVzPvjcZtg28gSIoxxHz0dsCqLF7Jldri0wIDAQABAoIBAG31hY3y6vtBV6hz
Ymp37eExnld6A9XOf+/c19d7w7WWGiDxJ9cFUHrP/Sdew1/QPRoJrzXBM6XteOhu
dXnSDksZAZdFNlJSSezuyf7WAfU5KRuWk5WOHU3ZTdj21m75Y5i8nWGP3KlJUs89
eI2zg+t+Hilnd9cvjjJMXP7tfFSFYzs0fzNwYePlo2D/1OI1Y3yg6t4jNQ8d6XqS
+D99vLUsWQqYZb7STRqd/5jTxntBcsGZc3i0G33/XiO+zxifjZuzPFJIG7ya6n/P
dKKDv3zcw08SXBf8rPOa873e+9/mb8ipvXGjvw5eQR5mDy810STt7y5hy8aRBe1U
zRFgqyECgYEA8KtqgNHpYMHHx0vz1Ur0YZk7niXjk8cA/sOJQhXys3C1WGtMxDid
hVR9RiL8KkA3d3mr9ITUR1Uc9noiBpVYcHpdxHzsm8e1qMxwgE9Na296aywyEVpr
JD8gN1yUxlKE8iiTOTnacJZZ6Ck0Vw3yelboWkYLkoONwqybda417jECgYEA5Dnb
zO811MNmivfzmeOCnbrSj/8wF7QfRigtpB79NT1Lsmc78LfxM2W2j3D68Jw2z0a1
RaRjrS2/yh+ZVr1YshOUU88YeSjuyyXAa1aarey0xjy0Q+9I6I6QFky5QNhsqevF
Ks5LeQq4wVGg7lHHIK7NSz8sQe1emuUy15a3TEMCgYARdE0gFJk5ZDRp9s8zS+FX
ZraVLKhJomgnEeVVfqQAcY8lX3rMzFJYRh1jxcvGAKxFJPTcofmHRtv34DmxgolM
dwNv6aN7VMuO92y9UYMK5KXbOfRTn9wfX9ilSzia/YcYzOqIfvKhsbXJiZt7KM7K
Ip1tVqEmOhZA5SXNLhpJMQKBgGe9nRn0ikWiZJQ6zTJgZlkIOPpXhybfK3Aah1SY
+YQfzq7Tmj17f1pbm7ZsJsUEXS2u+GslpGFt8EYSQwNYol6f48aM1pUMdC9Hg8XG
4hy5AhsyMMbImB2N4BUi3vqI5iv/Deq9RzVIGF9XmY17AsbqbksL9jQpj91c3dV9
nug9AoGASciPnXLD49wxJbVPfMZx5vqWWdW1zE6oGNtJs3DPV2NwfWT5gjNT5WP1
fFMKMD+9/zfOEn1CnRMK2Pe5ulTWBUHIe7RTxPavbhooRUuvxZZnTNmOG2t9J36S
lWSwjHVM2iFOjeM5ltnAkEHmlckG9bfR0A97X/cUL52r6AuVzNM=
-----END RSA PRIVATE KEY-----
