Certificate:
    Data:
        Version: 3 (0x2)
        Serial Number: 1 (0x1)
        Signature Algorithm: md5WithRSAEncryption
        Issuer: C=CN, ST=Beijing, L=Beijing, O=Linux, CN=koji/emailAddress=koji@163.com
        Validity
            Not Before: Aug  8 03:26:46 2022 GMT
            Not After : Aug  5 03:26:46 2032 GMT
        Subject: C=CN, ST=Beijing, O=Linux, CN=kojira/emailAddress=koji@163.com
        Subject Public Key Info:
            Public Key Algorithm: rsaEncryption
                RSA Public-Key: (2048 bit)
                Modulus:
                    00:bf:f0:b4:e4:19:72:06:ed:36:73:7b:73:10:af:
                    0d:c0:8e:08:51:30:02:50:bf:e4:36:ad:df:37:c5:
                    4d:62:62:31:95:98:c3:c0:41:d9:9d:45:9b:29:b0:
                    b4:3e:ed:d0:6f:dc:19:80:a7:71:f2:40:5d:97:6c:
                    c2:fd:dc:ab:c3:a5:03:26:b3:dd:79:85:e5:f5:30:
                    f5:a8:19:dc:c6:ce:b2:c4:94:9b:0c:93:80:9f:38:
                    2f:af:a1:5d:ca:1b:f7:c4:a3:c8:74:ea:62:0c:8d:
                    7f:2a:e2:98:b8:8e:50:1d:46:ab:dc:43:b3:92:e4:
                    0a:28:01:24:4e:56:bb:3f:c8:17:91:fe:06:4d:20:
                    76:ba:6f:b8:19:a9:21:df:1e:f7:1d:f9:26:7d:60:
                    5e:62:c5:7e:99:9d:ed:02:9b:25:78:79:0e:48:f5:
                    b6:2b:2a:ea:bc:46:45:d1:5f:5a:ce:97:a3:3c:98:
                    be:5b:ae:5e:de:4e:e0:70:15:3c:0e:cb:1e:7c:ec:
                    95:33:0a:e6:91:a8:1c:bb:f3:9f:13:ed:0b:cc:a0:
                    19:e3:25:d3:b1:10:63:fc:6c:de:5a:39:8e:94:24:
                    c5:35:92:64:a5:d9:6f:6e:c0:1d:65:ee:f2:67:d9:
                    2c:f3:df:f4:c7:bd:ec:29:6d:b7:17:f9:ed:52:82:
                    5f:97
                Exponent: 65537 (0x10001)
        X509v3 extensions:
            X509v3 Basic Constraints: 
                CA:FALSE
            Netscape Comment: 
                OpenSSL Generated Certificate
            X509v3 Subject Key Identifier: 
                D1:E9:A0:1B:4F:C0:1C:BD:54:26:5E:76:DD:7E:FB:75:47:13:B4:29
            X509v3 Authority Key Identifier: 
                keyid:BE:5B:5F:65:A1:79:00:E7:80:16:EE:A3:FD:F0:E8:60:BC:EE:64:F9
                DirName:/C=CN/ST=Beijing/L=Beijing/O=Linux/CN=koji/emailAddress=koji@163.com
                serial:3C:27:7B:70:E8:7F:63:04:D2:A7:D1:DC:52:77:3B:0C:D6:13:1E:93

    Signature Algorithm: md5WithRSAEncryption
         03:c6:9c:76:8c:aa:d4:27:3b:f9:24:58:38:bf:ee:fc:23:18:
         0f:35:56:82:6d:89:8f:06:b5:e2:34:ee:08:7e:26:1e:91:70:
         5a:71:4a:ac:f3:b0:38:31:9c:60:01:8a:48:36:70:5f:6e:c3:
         0d:34:0a:8c:f6:7a:5a:16:91:ab:32:d2:54:bb:14:16:cf:8c:
         2a:d1:e4:d4:60:af:0f:36:2b:e4:b9:cb:4b:6d:83:58:89:b0:
         34:8e:fe:18:be:42:53:07:c3:83:fa:4f:1e:0d:7f:40:06:6d:
         1c:ae:36:f5:92:fa:ef:c2:44:1e:33:20:93:6a:82:85:d7:37:
         4d:57:bb:43:05:c9:75:22:06:4e:8a:2a:de:c1:52:47:92:8a:
         da:b7:84:ff:75:20:a6:7d:9e:2e:cd:5b:f6:08:86:74:22:fe:
         a5:6d:4a:d7:c6:3e:9e:84:43:9a:b0:9e:02:fc:20:63:45:6e:
         34:69:4e:1e:4a:5a:30:ff:00:1f:02:76:e9:3d:c9:cf:01:81:
         05:92:b4:8d:0d:88:c6:8a:a9:c4:b2:54:53:ba:e8:d5:47:53:
         c5:1d:e8:4e:62:d5:3d:c4:06:c0:6f:11:e5:e1:e4:a1:44:02:
         52:38:8d:45:54:48:8b:29:18:71:ec:bb:34:5d:62:6e:a9:2d:
         64:ca:8f:69
-----BEGIN CERTIFICATE-----
MIIEUDCCAzigAwIBAgIBATANBgkqhkiG9w0BAQQFADBtMQswCQYDVQQGEwJDTjEQ
MA4GA1UECBMHQmVpamluZzEQMA4GA1UEBxMHQmVpamluZzEOMAwGA1UEChMFTGlu
dXgxDTALBgNVBAMTBGtvamkxGzAZBgkqhkiG9w0BCQEWDGtvamlAMTYzLmNvbTAe
Fw0yMjA4MDgwMzI2NDZaFw0zMjA4MDUwMzI2NDZaMF0xCzAJBgNVBAYTAkNOMRAw
DgYDVQQIEwdCZWlqaW5nMQ4wDAYDVQQKEwVMaW51eDEPMA0GA1UEAxMGa29qaXJh
MRswGQYJKoZIhvcNAQkBFgxrb2ppQDE2My5jb20wggEiMA0GCSqGSIb3DQEBAQUA
A4IBDwAwggEKAoIBAQC/8LTkGXIG7TZze3MQrw3AjghRMAJQv+Q2rd83xU1iYjGV
mMPAQdmdRZspsLQ+7dBv3BmAp3HyQF2XbML93KvDpQMms915heX1MPWoGdzGzrLE
lJsMk4CfOC+voV3KG/fEo8h06mIMjX8q4pi4jlAdRqvcQ7OS5AooASROVrs/yBeR
/gZNIHa6b7gZqSHfHvcd+SZ9YF5ixX6Zne0CmyV4eQ5I9bYrKuq8RkXRX1rOl6M8
mL5brl7eTuBwFTwOyx587JUzCuaRqBy7858T7QvMoBnjJdOxEGP8bN5aOY6UJMU1
kmSl2W9uwB1l7vJn2Szz3/THvewpbbcX+e1Sgl+XAgMBAAGjggEJMIIBBTAJBgNV
HRMEAjAAMCwGCWCGSAGG+EIBDQQfFh1PcGVuU1NMIEdlbmVyYXRlZCBDZXJ0aWZp
Y2F0ZTAdBgNVHQ4EFgQU0emgG0/AHL1UJl523X77dUcTtCkwgaoGA1UdIwSBojCB
n4AUvltfZaF5AOeAFu6j/fDoYLzuZPmhcaRvMG0xCzAJBgNVBAYTAkNOMRAwDgYD
VQQIEwdCZWlqaW5nMRAwDgYDVQQHEwdCZWlqaW5nMQ4wDAYDVQQKEwVMaW51eDEN
MAsGA1UEAxMEa29qaTEbMBkGCSqGSIb3DQEJARYMa29qaUAxNjMuY29tghQ8J3tw
6H9jBNKn0dxSdzsM1hMekzANBgkqhkiG9w0BAQQFAAOCAQEAA8acdoyq1Cc7+SRY
OL/u/CMYDzVWgm2Jjwa14jTuCH4mHpFwWnFKrPOwODGcYAGKSDZwX27DDTQKjPZ6
WhaRqzLSVLsUFs+MKtHk1GCvDzYr5LnLS22DWImwNI7+GL5CUwfDg/pPHg1/QAZt
HK429ZL678JEHjMgk2qChdc3TVe7QwXJdSIGTooq3sFSR5KK2reE/3Ugpn2eLs1b
9giGdCL+pW1K18Y+noRDmrCeAvwgY0VuNGlOHkpaMP8AHwJ26T3JzwGBBZK0jQ2I
xoqpxLJUU7ro1UdTxR3oTmLVPcQGwG8R5eHkoUQCUjiNRVRIiykYcey7NF1ibqkt
ZMqPaQ==
-----END CERTIFICATE-----
-----BEGIN RSA PRIVATE KEY-----
MIIEpAIBAAKCAQEAv/C05BlyBu02c3tzEK8NwI4IUTACUL/kNq3fN8VNYmIxlZjD
wEHZnUWbKbC0Pu3Qb9wZgKdx8kBdl2zC/dyrw6UDJrPdeYXl9TD1qBncxs6yxJSb
DJOAnzgvr6Fdyhv3xKPIdOpiDI1/KuKYuI5QHUar3EOzkuQKKAEkTla7P8gXkf4G
TSB2um+4Gakh3x73HfkmfWBeYsV+mZ3tApsleHkOSPW2KyrqvEZF0V9azpejPJi+
W65e3k7gcBU8DssefOyVMwrmkagcu/OfE+0LzKAZ4yXTsRBj/GzeWjmOlCTFNZJk
pdlvbsAdZe7yZ9ks89/0x73sKW23F/ntUoJflwIDAQABAoIBAQCiiqn1PGMm4H0r
IJDZwRSpSt5aOojLbyVI9MdCSHB272bEI8Epr9okaEy06nJJlETeZYqnO6WwG7fm
QvGB3/0JSlU30jus7KpHkHWILJadOW+EL8B5zvOuYftoBQQS4spYmMZp1A7CSJU3
cPsZ11Ka6D0j46VPsJO1OvpO6P3bTRTFvWaFQavqQVdvA+wXg7Ww1uTVIftBkhhZ
2/mOE01tdm0McWW2jKsvDHC50DljHtifWsGdjjUnAos66j/tED/OFKb3PJAaPgsA
7u6vt8ZyDLlU/JYHn9DoYcSURQgrIDO/iCHRGEcHFnA+ZqJb3NFmy5WtwkQ38tEi
CzKONeA5AoGBAOEI2VXkiGmggH5aPz6GfTVAvDBUqFz327NqprE8ktycmZcC1rcB
Bgld7gP0OwzeWUU5BRv5ncTj2g4ITFqEIJEcufKkFo97UjczIRuigLIvkKh/IM2+
bfbcdpuYr3QkrfZWHdcwPoOolaMOaS7d1gY9DVuhe7BuO1r3EMIVLm8FAoGBANpa
ELqQDNDwMWjzz+zOCitYRRYF//dmorsZZTGR7sBCdJB4FEH2GOXVvdNEx7QiwGZ7
YWgkSIELtGEONpEp+7ohmMc/kUkclvUifD+iKKrOlzYU/Z17rHvuQc2Vim7wc6mu
kzmzdgJ3hG7jqVCicxYXft76vih6ExOBxXM1pn7rAoGAdJ9NYwIo3/TaIqFKnXC9
etetr65wAp5BMd5XvQqTYdmWj3hdJkJVio0vSMVNxQGGaiV+zFy0stEStKsARviq
mAm3JFR9jKZwmULaKaQx5iZYZbpcmcPS4Vin70NVym8n6L4AgQDzpO+9fN9/C1bU
EC+buJ0bqPe3sxDPkoW/prECgYEAppmZsf8/CBx8VqvQtcnvkGrlK4ygZM/20fLq
dwv1stQBxEkai8mN7a9MCuqrxRHO42K4S5GDkJKxqmwBznjODJKd00j5PWOG+rq5
OoQrq0e9sBIMACDg1h5QLuAuo77rQUhmJNx86hzu+vzRryiDzxNWRiPi+1dJPtUB
JoqE4skCgYBwz0bebM5qtOjcc68MK/ttWwUv7qi+rZtk10cZ3mG9pLTl1ZzZ8acr
4XoMFNpGeZ1BH4dZUyx7d+pAXpP7cax+n2vG3UheFC2fpFHDeh2zp3liC1W5b83k
AzQagfoa3fbIVzSr4LA5NE9E2krQM/mRalwjIWa9AD14IBCAVuvSLA==
-----END RSA PRIVATE KEY-----
