Certificate:
    Data:
        Version: 3 (0x2)
        Serial Number: 5 (0x5)
        Signature Algorithm: md5WithRSAEncryption
        Issuer: C=CN, ST=Beijing, L=Beijing, O=Linux, CN=koji/emailAddress=koji@163.com
        Validity
            Not Before: Aug  8 03:27:45 2022 GMT
            Not After : Aug  5 03:27:45 2032 GMT
        Subject: C=CN, ST=Beijing, O=Linux, CN=kojibuilder2/emailAddress=koji@163.com
        Subject Public Key Info:
            Public Key Algorithm: rsaEncryption
                RSA Public-Key: (2048 bit)
                Modulus:
                    00:de:e5:06:c5:61:f4:44:8f:ba:ee:b0:fc:23:bb:
                    f1:d4:96:0b:f0:1e:b0:d3:09:2a:44:22:94:85:48:
                    80:8d:2c:ae:6b:55:2d:1b:e5:e6:2d:99:72:70:00:
                    ca:39:87:c8:cd:28:60:e4:33:be:59:d1:04:8d:fd:
                    53:94:6b:43:96:96:c2:6d:6b:3b:06:2f:54:7d:0f:
                    87:0e:03:79:9b:b2:bf:4e:71:46:eb:66:b6:e5:9e:
                    2e:d0:5c:79:f7:3e:02:b0:a9:e7:2b:88:55:1c:de:
                    82:23:03:3c:5b:b0:b6:13:43:9f:82:c7:1b:bf:cd:
                    eb:40:58:96:1d:66:b9:f0:8d:20:b7:a6:4c:5f:a6:
                    16:e9:fa:75:c2:d3:7c:11:86:0d:9f:77:d9:69:83:
                    d4:31:08:1b:07:46:b1:cb:e6:01:4b:99:22:71:b9:
                    95:13:19:8b:43:ec:b4:08:d0:73:1a:8c:16:0f:ef:
                    73:bd:48:f5:50:35:7a:7a:ee:41:10:27:e1:b8:3e:
                    ca:35:46:85:fa:0c:32:3c:93:a9:3d:e6:4d:75:77:
                    fd:ce:ac:5c:5d:d6:be:f5:41:5d:3c:ae:18:d1:6d:
                    b4:7c:6a:e8:2e:a4:80:00:76:b8:f7:e8:f2:8e:38:
                    dc:93:85:a8:a2:1a:9f:5e:ad:7b:53:4f:78:60:c6:
                    c5:63
                Exponent: 65537 (0x10001)
        X509v3 extensions:
            X509v3 Basic Constraints: 
                CA:FALSE
            Netscape Comment: 
                OpenSSL Generated Certificate
            X509v3 Subject Key Identifier: 
                6D:5F:B9:F8:83:98:54:BD:AF:62:19:6E:54:3E:B5:C0:6E:8A:A2:51
            X509v3 Authority Key Identifier: 
                keyid:BE:5B:5F:65:A1:79:00:E7:80:16:EE:A3:FD:F0:E8:60:BC:EE:64:F9
                DirName:/C=CN/ST=Beijing/L=Beijing/O=Linux/CN=koji/emailAddress=koji@163.com
                serial:3C:27:7B:70:E8:7F:63:04:D2:A7:D1:DC:52:77:3B:0C:D6:13:1E:93

    Signature Algorithm: md5WithRSAEncryption
         59:fe:bb:ff:32:3c:74:89:f3:ca:d1:b1:3b:c1:cf:bc:5d:0e:
         8d:37:56:3b:b3:ba:5f:d2:ad:9d:46:3b:a4:af:69:f7:cf:9a:
         ff:f5:42:90:91:1e:f6:bc:3b:16:21:c2:79:de:fe:40:7e:21:
         19:b0:57:e0:87:84:25:6d:69:85:da:26:20:af:f2:37:96:c0:
         02:89:a1:be:c4:23:44:88:40:e8:b4:51:c4:b5:79:a9:43:a3:
         ff:32:91:ba:6a:b9:b4:24:21:bc:4b:d0:35:82:44:6f:98:06:
         2c:5d:6d:8d:bc:0b:b8:73:f2:6e:90:40:a4:de:3b:ba:c3:1f:
         69:bd:51:33:c0:d6:eb:bd:ba:81:71:1e:24:a6:2d:74:b8:a1:
         7b:6e:9d:74:f1:b9:ca:e7:b5:9c:c1:31:1d:30:cf:c7:52:4b:
         20:51:9b:4e:18:f3:1e:f0:08:8c:49:af:16:0e:c3:ec:9d:f4:
         fb:27:5a:87:67:c7:38:65:27:dd:1d:a9:a3:93:26:67:1b:79:
         a1:a5:6d:bb:75:ba:61:02:dd:a6:d3:bc:a8:53:18:f7:56:e1:
         70:1b:fb:5b:b0:67:ac:ed:0d:af:fb:58:08:48:e3:85:02:83:
         2f:6c:0a:d5:f8:d2:ee:ea:93:ad:d6:59:12:a6:7e:ca:3e:a9:
         e1:e9:9b:44
-----BEGIN CERTIFICATE-----
MIIEVjCCAz6gAwIBAgIBBTANBgkqhkiG9w0BAQQFADBtMQswCQYDVQQGEwJDTjEQ
MA4GA1UECBMHQmVpamluZzEQMA4GA1UEBxMHQmVpamluZzEOMAwGA1UEChMFTGlu
dXgxDTALBgNVBAMTBGtvamkxGzAZBgkqhkiG9w0BCQEWDGtvamlAMTYzLmNvbTAe
Fw0yMjA4MDgwMzI3NDVaFw0zMjA4MDUwMzI3NDVaMGMxCzAJBgNVBAYTAkNOMRAw
DgYDVQQIEwdCZWlqaW5nMQ4wDAYDVQQKEwVMaW51eDEVMBMGA1UEAxMMa29qaWJ1
aWxkZXIyMRswGQYJKoZIhvcNAQkBFgxrb2ppQDE2My5jb20wggEiMA0GCSqGSIb3
DQEBAQUAA4IBDwAwggEKAoIBAQDe5QbFYfREj7rusPwju/HUlgvwHrDTCSpEIpSF
SICNLK5rVS0b5eYtmXJwAMo5h8jNKGDkM75Z0QSN/VOUa0OWlsJtazsGL1R9D4cO
A3mbsr9OcUbrZrblni7QXHn3PgKwqecriFUc3oIjAzxbsLYTQ5+Cxxu/zetAWJYd
ZrnwjSC3pkxfphbp+nXC03wRhg2fd9lpg9QxCBsHRrHL5gFLmSJxuZUTGYtD7LQI
0HMajBYP73O9SPVQNXp67kEQJ+G4Pso1RoX6DDI8k6k95k11d/3OrFxd1r71QV08
rhjRbbR8augupIAAdrj36PKOONyThaiiGp9erXtTT3hgxsVjAgMBAAGjggEJMIIB
BTAJBgNVHRMEAjAAMCwGCWCGSAGG+EIBDQQfFh1PcGVuU1NMIEdlbmVyYXRlZCBD
ZXJ0aWZpY2F0ZTAdBgNVHQ4EFgQUbV+5+IOYVL2vYhluVD61wG6KolEwgaoGA1Ud
IwSBojCBn4AUvltfZaF5AOeAFu6j/fDoYLzuZPmhcaRvMG0xCzAJBgNVBAYTAkNO
MRAwDgYDVQQIEwdCZWlqaW5nMRAwDgYDVQQHEwdCZWlqaW5nMQ4wDAYDVQQKEwVM
aW51eDENMAsGA1UEAxMEa29qaTEbMBkGCSqGSIb3DQEJARYMa29qaUAxNjMuY29t
ghQ8J3tw6H9jBNKn0dxSdzsM1hMekzANBgkqhkiG9w0BAQQFAAOCAQEAWf67/zI8
dInzytGxO8HPvF0OjTdWO7O6X9KtnUY7pK9p98+a//VCkJEe9rw7FiHCed7+QH4h
GbBX4IeEJW1phdomIK/yN5bAAomhvsQjRIhA6LRRxLV5qUOj/zKRumq5tCQhvEvQ
NYJEb5gGLF1tjbwLuHPybpBApN47usMfab1RM8DW6726gXEeJKYtdLihe26ddPG5
yue1nMExHTDPx1JLIFGbThjzHvAIjEmvFg7D7J30+ydah2fHOGUn3R2po5MmZxt5
oaVtu3W6YQLdptO8qFMY91bhcBv7W7BnrO0Nr/tYCEjjhQKDL2wK1fjS7uqTrdZZ
EqZ+yj6p4embRA==
-----END CERTIFICATE-----
-----BEGIN RSA PRIVATE KEY-----
MIIEpAIBAAKCAQEA3uUGxWH0RI+67rD8I7vx1JYL8B6w0wkqRCKUhUiAjSyua1Ut
G+XmLZlycADKOYfIzShg5DO+WdEEjf1TlGtDlpbCbWs7Bi9UfQ+HDgN5m7K/TnFG
62a25Z4u0Fx59z4CsKnnK4hVHN6CIwM8W7C2E0Ofgscbv83rQFiWHWa58I0gt6ZM
X6YW6fp1wtN8EYYNn3fZaYPUMQgbB0axy+YBS5kicbmVExmLQ+y0CNBzGowWD+9z
vUj1UDV6eu5BECfhuD7KNUaF+gwyPJOpPeZNdXf9zqxcXda+9UFdPK4Y0W20fGro
LqSAAHa49+jyjjjck4WoohqfXq17U094YMbFYwIDAQABAoIBACnLpl5ixMwKa5IQ
i+cjefBUBn8LMjsQT+Wg2lq3wqs2QqqLuT6u+F96k5PfAgyRopydwrVn4nyzDfiW
FRMSngTh1ilwXwwE2gHtZHTDQA1rEiZiZVsE0qzx4XNes9whu51m7psiIFueeaaZ
F7tVwn6QQpviPBjWQxO4yMVQmvM5GcEnhp8afTXxasxguuajTl6JADpwZPs8Qk7r
Sjal9P5kzZKKGrtGrQ3UjWP7eeHTSKbrh8MeciDXNeM2geLWAdzt1GKnJYN0Ku9D
YQ20cU9cWslTa4HiC8ynXvgo5TbWLMyGGaYa9bnCfVOFx2f4fWmMIqpRa3KvANK9
wCmtRykCgYEA+7l5rt+Apn5DV8z1/8eHuHp9UQipNUwcTGXNFJf+pWIt6DQPTdcl
7r9U51nexW8JWu1c3GUs0WyjfxVX89rhKb8sNX4B4B2wM8B/z5KF9LhMMkX+IjTA
MSEERIyvWp6rS5DkmiR+Cl1ybRuBB/SNgmf7HPCR8Vn835m9Mt3Qpo0CgYEA4q4y
HpTEa27ZCUy425C2a/AEVBpDb801r4aBpv6yOZhDVetDDUXL5kBbUhlQLGyYfXga
gN/INFGzNtIXRKj04J3mHqHSQgXnftca8n++nAd8CRPE5T6TJ5f4HCJtFJJjrNZh
8zWc+WcZuvSxhB0j1Z4akjmlZABY9YO6/9d3V68CgYEAxhXqf4Y5wsrRS6JqYuEt
GCqrurzKCrrd+fCSNYZ2SMa9wWBWOrb3jqzZr0S1XUBHaFopHPYxEowfDL5K/AZd
8XAS5fVGnIpAQjlVWo6/AxiUPWt+1IQWSZLlvNvIkdMSkOBwRCw7UwS+KsXd/9ie
EuSoYtmcvwRFTd+5VvHeY3ECgYBoqtB/qGetx6g1kBSHZaGl41TMVLgwxot0eeIh
7tbymyj0YkY6ubC1p5/DH+cSLC6ZOLzcJvh1mAftV0LhNDamBKK+IDBKxhknS0Gp
GW009IvEUTmINMWT8arhqs+9QP7/Tpo5x9asnnuWBOh2vVHPkEpqnG2O6E4rR2Ew
QxhbBwKBgQC36SLcpuv7/x1+DfGvn1IsL1OnI21iBXSIYlSK6RRKnrnhFy/jb5bM
n06x49pgXwL+vVqiqjJTXQcrD9X3qKmXeMoZGfaRUtPF0LzC0V5H0MnpM20yU9rp
zSIvgzbcb48Kl3riReMN3Xp1N3YBenC9M8b4IYL/NvJ9yIyh/Ez4iA==
-----END RSA PRIVATE KEY-----
